
bzip2:     file format elf64-x86-64


Disassembly of section .init:

0000000000401038 <_init>:
  401038:	48 83 ec 08          	sub    $0x8,%rsp
  40103c:	e8 fb 02 00 00       	callq  40133c <call_gmon_start>
  401041:	48 83 c4 08          	add    $0x8,%rsp
  401045:	c3                   	retq   

Disassembly of section .plt:

0000000000401050 <.plt>:
  401050:	ff 35 aa b3 21 00    	pushq  0x21b3aa(%rip)        # 61c400 <_GLOBAL_OFFSET_TABLE_+0x8>
  401056:	ff 25 ac b3 21 00    	jmpq   *0x21b3ac(%rip)        # 61c408 <_GLOBAL_OFFSET_TABLE_+0x10>
  40105c:	0f 1f 40 00          	nopl   0x0(%rax)

0000000000401060 <getenv@plt>:
  401060:	ff 25 aa b3 21 00    	jmpq   *0x21b3aa(%rip)        # 61c410 <getenv@GLIBC_2.2.5>
  401066:	68 00 00 00 00       	pushq  $0x0
  40106b:	e9 e0 ff ff ff       	jmpq   401050 <.plt>

0000000000401070 <utime@plt>:
  401070:	ff 25 a2 b3 21 00    	jmpq   *0x21b3a2(%rip)        # 61c418 <utime@GLIBC_2.2.5>
  401076:	68 01 00 00 00       	pushq  $0x1
  40107b:	e9 d0 ff ff ff       	jmpq   401050 <.plt>

0000000000401080 <free@plt>:
  401080:	ff 25 9a b3 21 00    	jmpq   *0x21b39a(%rip)        # 61c420 <free@GLIBC_2.2.5>
  401086:	68 02 00 00 00       	pushq  $0x2
  40108b:	e9 c0 ff ff ff       	jmpq   401050 <.plt>

0000000000401090 <__errno_location@plt>:
  401090:	ff 25 92 b3 21 00    	jmpq   *0x21b392(%rip)        # 61c428 <__errno_location@GLIBC_2.2.5>
  401096:	68 03 00 00 00       	pushq  $0x3
  40109b:	e9 b0 ff ff ff       	jmpq   401050 <.plt>

00000000004010a0 <strncpy@plt>:
  4010a0:	ff 25 8a b3 21 00    	jmpq   *0x21b38a(%rip)        # 61c430 <strncpy@GLIBC_2.2.5>
  4010a6:	68 04 00 00 00       	pushq  $0x4
  4010ab:	e9 a0 ff ff ff       	jmpq   401050 <.plt>

00000000004010b0 <remove@plt>:
  4010b0:	ff 25 82 b3 21 00    	jmpq   *0x21b382(%rip)        # 61c438 <remove@GLIBC_2.2.5>
  4010b6:	68 05 00 00 00       	pushq  $0x5
  4010bb:	e9 90 ff ff ff       	jmpq   401050 <.plt>

00000000004010c0 <strncmp@plt>:
  4010c0:	ff 25 7a b3 21 00    	jmpq   *0x21b37a(%rip)        # 61c440 <strncmp@GLIBC_2.2.5>
  4010c6:	68 06 00 00 00       	pushq  $0x6
  4010cb:	e9 80 ff ff ff       	jmpq   401050 <.plt>

00000000004010d0 <strcpy@plt>:
  4010d0:	ff 25 72 b3 21 00    	jmpq   *0x21b372(%rip)        # 61c448 <strcpy@GLIBC_2.2.5>
  4010d6:	68 07 00 00 00       	pushq  $0x7
  4010db:	e9 70 ff ff ff       	jmpq   401050 <.plt>

00000000004010e0 <GOMP_parallel_start@plt>:
  4010e0:	ff 25 6a b3 21 00    	jmpq   *0x21b36a(%rip)        # 61c450 <GOMP_parallel_start@GOMP_1.0>
  4010e6:	68 08 00 00 00       	pushq  $0x8
  4010eb:	e9 60 ff ff ff       	jmpq   401050 <.plt>

00000000004010f0 <ferror@plt>:
  4010f0:	ff 25 62 b3 21 00    	jmpq   *0x21b362(%rip)        # 61c458 <ferror@GLIBC_2.2.5>
  4010f6:	68 09 00 00 00       	pushq  $0x9
  4010fb:	e9 50 ff ff ff       	jmpq   401050 <.plt>

0000000000401100 <isatty@plt>:
  401100:	ff 25 5a b3 21 00    	jmpq   *0x21b35a(%rip)        # 61c460 <isatty@GLIBC_2.2.5>
  401106:	68 0a 00 00 00       	pushq  $0xa
  40110b:	e9 40 ff ff ff       	jmpq   401050 <.plt>

0000000000401110 <fread@plt>:
  401110:	ff 25 52 b3 21 00    	jmpq   *0x21b352(%rip)        # 61c468 <fread@GLIBC_2.2.5>
  401116:	68 0b 00 00 00       	pushq  $0xb
  40111b:	e9 30 ff ff ff       	jmpq   401050 <.plt>

0000000000401120 <fclose@plt>:
  401120:	ff 25 4a b3 21 00    	jmpq   *0x21b34a(%rip)        # 61c470 <fclose@GLIBC_2.2.5>
  401126:	68 0c 00 00 00       	pushq  $0xc
  40112b:	e9 20 ff ff ff       	jmpq   401050 <.plt>

0000000000401130 <GOMP_parallel_end@plt>:
  401130:	ff 25 42 b3 21 00    	jmpq   *0x21b342(%rip)        # 61c478 <GOMP_parallel_end@GOMP_1.0>
  401136:	68 0d 00 00 00       	pushq  $0xd
  40113b:	e9 10 ff ff ff       	jmpq   401050 <.plt>

0000000000401140 <omp_get_thread_num@plt>:
  401140:	ff 25 3a b3 21 00    	jmpq   *0x21b33a(%rip)        # 61c480 <omp_get_thread_num@OMP_1.0>
  401146:	68 0e 00 00 00       	pushq  $0xe
  40114b:	e9 00 ff ff ff       	jmpq   401050 <.plt>

0000000000401150 <strlen@plt>:
  401150:	ff 25 32 b3 21 00    	jmpq   *0x21b332(%rip)        # 61c488 <strlen@GLIBC_2.2.5>
  401156:	68 0f 00 00 00       	pushq  $0xf
  40115b:	e9 f0 fe ff ff       	jmpq   401050 <.plt>

0000000000401160 <__lxstat@plt>:
  401160:	ff 25 2a b3 21 00    	jmpq   *0x21b32a(%rip)        # 61c490 <__lxstat@GLIBC_2.2.5>
  401166:	68 10 00 00 00       	pushq  $0x10
  40116b:	e9 e0 fe ff ff       	jmpq   401050 <.plt>

0000000000401170 <rewind@plt>:
  401170:	ff 25 22 b3 21 00    	jmpq   *0x21b322(%rip)        # 61c498 <rewind@GLIBC_2.2.5>
  401176:	68 11 00 00 00       	pushq  $0x11
  40117b:	e9 d0 fe ff ff       	jmpq   401050 <.plt>

0000000000401180 <fgetc@plt>:
  401180:	ff 25 1a b3 21 00    	jmpq   *0x21b31a(%rip)        # 61c4a0 <fgetc@GLIBC_2.2.5>
  401186:	68 12 00 00 00       	pushq  $0x12
  40118b:	e9 c0 fe ff ff       	jmpq   401050 <.plt>

0000000000401190 <close@plt>:
  401190:	ff 25 12 b3 21 00    	jmpq   *0x21b312(%rip)        # 61c4a8 <close@GLIBC_2.2.5>
  401196:	68 13 00 00 00       	pushq  $0x13
  40119b:	e9 b0 fe ff ff       	jmpq   401050 <.plt>

00000000004011a0 <fputc@plt>:
  4011a0:	ff 25 0a b3 21 00    	jmpq   *0x21b30a(%rip)        # 61c4b0 <fputc@GLIBC_2.2.5>
  4011a6:	68 14 00 00 00       	pushq  $0x14
  4011ab:	e9 a0 fe ff ff       	jmpq   401050 <.plt>

00000000004011b0 <__libc_start_main@plt>:
  4011b0:	ff 25 02 b3 21 00    	jmpq   *0x21b302(%rip)        # 61c4b8 <__libc_start_main@GLIBC_2.2.5>
  4011b6:	68 15 00 00 00       	pushq  $0x15
  4011bb:	e9 90 fe ff ff       	jmpq   401050 <.plt>

00000000004011c0 <strcmp@plt>:
  4011c0:	ff 25 fa b2 21 00    	jmpq   *0x21b2fa(%rip)        # 61c4c0 <strcmp@GLIBC_2.2.5>
  4011c6:	68 16 00 00 00       	pushq  $0x16
  4011cb:	e9 80 fe ff ff       	jmpq   401050 <.plt>

00000000004011d0 <signal@plt>:
  4011d0:	ff 25 f2 b2 21 00    	jmpq   *0x21b2f2(%rip)        # 61c4c8 <signal@GLIBC_2.2.5>
  4011d6:	68 17 00 00 00       	pushq  $0x17
  4011db:	e9 70 fe ff ff       	jmpq   401050 <.plt>

00000000004011e0 <omp_get_num_threads@plt>:
  4011e0:	ff 25 ea b2 21 00    	jmpq   *0x21b2ea(%rip)        # 61c4d0 <omp_get_num_threads@OMP_1.0>
  4011e6:	68 18 00 00 00       	pushq  $0x18
  4011eb:	e9 60 fe ff ff       	jmpq   401050 <.plt>

00000000004011f0 <fprintf@plt>:
  4011f0:	ff 25 e2 b2 21 00    	jmpq   *0x21b2e2(%rip)        # 61c4d8 <fprintf@GLIBC_2.2.5>
  4011f6:	68 19 00 00 00       	pushq  $0x19
  4011fb:	e9 50 fe ff ff       	jmpq   401050 <.plt>

0000000000401200 <fileno@plt>:
  401200:	ff 25 da b2 21 00    	jmpq   *0x21b2da(%rip)        # 61c4e0 <fileno@GLIBC_2.2.5>
  401206:	68 1a 00 00 00       	pushq  $0x1a
  40120b:	e9 40 fe ff ff       	jmpq   401050 <.plt>

0000000000401210 <__xstat@plt>:
  401210:	ff 25 d2 b2 21 00    	jmpq   *0x21b2d2(%rip)        # 61c4e8 <__xstat@GLIBC_2.2.5>
  401216:	68 1b 00 00 00       	pushq  $0x1b
  40121b:	e9 30 fe ff ff       	jmpq   401050 <.plt>

0000000000401220 <malloc@plt>:
  401220:	ff 25 ca b2 21 00    	jmpq   *0x21b2ca(%rip)        # 61c4f0 <malloc@GLIBC_2.2.5>
  401226:	68 1c 00 00 00       	pushq  $0x1c
  40122b:	e9 20 fe ff ff       	jmpq   401050 <.plt>

0000000000401230 <fflush@plt>:
  401230:	ff 25 c2 b2 21 00    	jmpq   *0x21b2c2(%rip)        # 61c4f8 <fflush@GLIBC_2.2.5>
  401236:	68 1d 00 00 00       	pushq  $0x1d
  40123b:	e9 10 fe ff ff       	jmpq   401050 <.plt>

0000000000401240 <ungetc@plt>:
  401240:	ff 25 ba b2 21 00    	jmpq   *0x21b2ba(%rip)        # 61c500 <ungetc@GLIBC_2.2.5>
  401246:	68 1e 00 00 00       	pushq  $0x1e
  40124b:	e9 00 fe ff ff       	jmpq   401050 <.plt>

0000000000401250 <chown@plt>:
  401250:	ff 25 b2 b2 21 00    	jmpq   *0x21b2b2(%rip)        # 61c508 <chown@GLIBC_2.2.5>
  401256:	68 1f 00 00 00       	pushq  $0x1f
  40125b:	e9 f0 fd ff ff       	jmpq   401050 <.plt>

0000000000401260 <fdopen@plt>:
  401260:	ff 25 aa b2 21 00    	jmpq   *0x21b2aa(%rip)        # 61c510 <fdopen@GLIBC_2.2.5>
  401266:	68 20 00 00 00       	pushq  $0x20
  40126b:	e9 e0 fd ff ff       	jmpq   401050 <.plt>

0000000000401270 <chmod@plt>:
  401270:	ff 25 a2 b2 21 00    	jmpq   *0x21b2a2(%rip)        # 61c518 <chmod@GLIBC_2.2.5>
  401276:	68 21 00 00 00       	pushq  $0x21
  40127b:	e9 d0 fd ff ff       	jmpq   401050 <.plt>

0000000000401280 <open@plt>:
  401280:	ff 25 9a b2 21 00    	jmpq   *0x21b29a(%rip)        # 61c520 <open@GLIBC_2.2.5>
  401286:	68 22 00 00 00       	pushq  $0x22
  40128b:	e9 c0 fd ff ff       	jmpq   401050 <.plt>

0000000000401290 <fopen@plt>:
  401290:	ff 25 92 b2 21 00    	jmpq   *0x21b292(%rip)        # 61c528 <fopen@GLIBC_2.2.5>
  401296:	68 23 00 00 00       	pushq  $0x23
  40129b:	e9 b0 fd ff ff       	jmpq   401050 <.plt>

00000000004012a0 <perror@plt>:
  4012a0:	ff 25 8a b2 21 00    	jmpq   *0x21b28a(%rip)        # 61c530 <perror@GLIBC_2.2.5>
  4012a6:	68 24 00 00 00       	pushq  $0x24
  4012ab:	e9 a0 fd ff ff       	jmpq   401050 <.plt>

00000000004012b0 <strcat@plt>:
  4012b0:	ff 25 82 b2 21 00    	jmpq   *0x21b282(%rip)        # 61c538 <strcat@GLIBC_2.2.5>
  4012b6:	68 25 00 00 00       	pushq  $0x25
  4012bb:	e9 90 fd ff ff       	jmpq   401050 <.plt>

00000000004012c0 <exit@plt>:
  4012c0:	ff 25 7a b2 21 00    	jmpq   *0x21b27a(%rip)        # 61c540 <exit@GLIBC_2.2.5>
  4012c6:	68 26 00 00 00       	pushq  $0x26
  4012cb:	e9 80 fd ff ff       	jmpq   401050 <.plt>

00000000004012d0 <fwrite@plt>:
  4012d0:	ff 25 72 b2 21 00    	jmpq   *0x21b272(%rip)        # 61c548 <fwrite@GLIBC_2.2.5>
  4012d6:	68 27 00 00 00       	pushq  $0x27
  4012db:	e9 70 fd ff ff       	jmpq   401050 <.plt>

00000000004012e0 <strerror@plt>:
  4012e0:	ff 25 6a b2 21 00    	jmpq   *0x21b26a(%rip)        # 61c550 <strerror@GLIBC_2.2.5>
  4012e6:	68 28 00 00 00       	pushq  $0x28
  4012eb:	e9 60 fd ff ff       	jmpq   401050 <.plt>

00000000004012f0 <strstr@plt>:
  4012f0:	ff 25 62 b2 21 00    	jmpq   *0x21b262(%rip)        # 61c558 <strstr@GLIBC_2.2.5>
  4012f6:	68 29 00 00 00       	pushq  $0x29
  4012fb:	e9 50 fd ff ff       	jmpq   401050 <.plt>

0000000000401300 <__ctype_b_loc@plt>:
  401300:	ff 25 5a b2 21 00    	jmpq   *0x21b25a(%rip)        # 61c560 <__ctype_b_loc@GLIBC_2.3>
  401306:	68 2a 00 00 00       	pushq  $0x2a
  40130b:	e9 40 fd ff ff       	jmpq   401050 <.plt>

Disassembly of section .text:

0000000000401310 <_start>:
  401310:	31 ed                	xor    %ebp,%ebp
  401312:	49 89 d1             	mov    %rdx,%r9
  401315:	5e                   	pop    %rsi
  401316:	48 89 e2             	mov    %rsp,%rdx
  401319:	48 83 e4 f0          	and    $0xfffffffffffffff0,%rsp
  40131d:	50                   	push   %rax
  40131e:	54                   	push   %rsp
  40131f:	49 c7 c0 70 85 41 00 	mov    $0x418570,%r8
  401326:	48 c7 c1 80 85 41 00 	mov    $0x418580,%rcx
  40132d:	48 c7 c7 af 40 40 00 	mov    $0x4040af,%rdi
  401334:	e8 77 fe ff ff       	callq  4011b0 <__libc_start_main@plt>
  401339:	f4                   	hlt    
  40133a:	90                   	nop
  40133b:	90                   	nop

000000000040133c <call_gmon_start>:
  40133c:	48 83 ec 08          	sub    $0x8,%rsp
  401340:	48 8b 05 a9 b0 21 00 	mov    0x21b0a9(%rip),%rax        # 61c3f0 <__gmon_start__>
  401347:	48 85 c0             	test   %rax,%rax
  40134a:	74 02                	je     40134e <call_gmon_start+0x12>
  40134c:	ff d0                	callq  *%rax
  40134e:	48 83 c4 08          	add    $0x8,%rsp
  401352:	c3                   	retq   
  401353:	66 2e 0f 1f 84 00 00 	nopw   %cs:0x0(%rax,%rax,1)
  40135a:	00 00 00 
  40135d:	0f 1f 00             	nopl   (%rax)

0000000000401360 <deregister_tm_clones>:
  401360:	b8 a7 d2 61 00       	mov    $0x61d2a7,%eax
  401365:	55                   	push   %rbp
  401366:	48 2d a0 d2 61 00    	sub    $0x61d2a0,%rax
  40136c:	48 83 f8 0e          	cmp    $0xe,%rax
  401370:	48 89 e5             	mov    %rsp,%rbp
  401373:	77 02                	ja     401377 <deregister_tm_clones+0x17>
  401375:	5d                   	pop    %rbp
  401376:	c3                   	retq   
  401377:	b8 00 00 00 00       	mov    $0x0,%eax
  40137c:	48 85 c0             	test   %rax,%rax
  40137f:	74 f4                	je     401375 <deregister_tm_clones+0x15>
  401381:	5d                   	pop    %rbp
  401382:	bf a0 d2 61 00       	mov    $0x61d2a0,%edi
  401387:	ff e0                	jmpq   *%rax
  401389:	0f 1f 80 00 00 00 00 	nopl   0x0(%rax)

0000000000401390 <register_tm_clones>:
  401390:	b8 a0 d2 61 00       	mov    $0x61d2a0,%eax
  401395:	55                   	push   %rbp
  401396:	48 2d a0 d2 61 00    	sub    $0x61d2a0,%rax
  40139c:	48 c1 f8 03          	sar    $0x3,%rax
  4013a0:	48 89 e5             	mov    %rsp,%rbp
  4013a3:	48 89 c2             	mov    %rax,%rdx
  4013a6:	48 c1 ea 3f          	shr    $0x3f,%rdx
  4013aa:	48 01 d0             	add    %rdx,%rax
  4013ad:	48 89 c6             	mov    %rax,%rsi
  4013b0:	48 d1 fe             	sar    %rsi
  4013b3:	75 02                	jne    4013b7 <register_tm_clones+0x27>
  4013b5:	5d                   	pop    %rbp
  4013b6:	c3                   	retq   
  4013b7:	ba 00 00 00 00       	mov    $0x0,%edx
  4013bc:	48 85 d2             	test   %rdx,%rdx
  4013bf:	74 f4                	je     4013b5 <register_tm_clones+0x25>
  4013c1:	5d                   	pop    %rbp
  4013c2:	bf a0 d2 61 00       	mov    $0x61d2a0,%edi
  4013c7:	ff e2                	jmpq   *%rdx
  4013c9:	0f 1f 80 00 00 00 00 	nopl   0x0(%rax)

00000000004013d0 <__do_global_dtors_aux>:
  4013d0:	80 3d e1 be 21 00 00 	cmpb   $0x0,0x21bee1(%rip)        # 61d2b8 <completed.6056>
  4013d7:	75 11                	jne    4013ea <__do_global_dtors_aux+0x1a>
  4013d9:	55                   	push   %rbp
  4013da:	48 89 e5             	mov    %rsp,%rbp
  4013dd:	e8 7e ff ff ff       	callq  401360 <deregister_tm_clones>
  4013e2:	5d                   	pop    %rbp
  4013e3:	c6 05 ce be 21 00 01 	movb   $0x1,0x21bece(%rip)        # 61d2b8 <completed.6056>
  4013ea:	f3 c3                	repz retq 
  4013ec:	0f 1f 40 00          	nopl   0x0(%rax)

00000000004013f0 <frame_dummy>:
  4013f0:	48 83 3d f0 ad 21 00 	cmpq   $0x0,0x21adf0(%rip)        # 61c1e8 <__JCR_END__>
  4013f7:	00 
  4013f8:	74 1b                	je     401415 <frame_dummy+0x25>
  4013fa:	b8 00 00 00 00       	mov    $0x0,%eax
  4013ff:	48 85 c0             	test   %rax,%rax
  401402:	74 11                	je     401415 <frame_dummy+0x25>
  401404:	55                   	push   %rbp
  401405:	bf e8 c1 61 00       	mov    $0x61c1e8,%edi
  40140a:	48 89 e5             	mov    %rsp,%rbp
  40140d:	ff d0                	callq  *%rax
  40140f:	5d                   	pop    %rbp
  401410:	e9 7b ff ff ff       	jmpq   401390 <register_tm_clones>
  401415:	e9 76 ff ff ff       	jmpq   401390 <register_tm_clones>
  40141a:	66 90                	xchg   %ax,%ax

000000000040141c <uInt64_from_UInt32s>:
  40141c:	55                   	push   %rbp
  40141d:	48 89 e5             	mov    %rsp,%rbp
  401420:	48 89 7d f8          	mov    %rdi,-0x8(%rbp)
  401424:	89 75 f4             	mov    %esi,-0xc(%rbp)
  401427:	89 55 f0             	mov    %edx,-0x10(%rbp)
  40142a:	8b 45 f0             	mov    -0x10(%rbp),%eax
  40142d:	c1 e8 18             	shr    $0x18,%eax
  401430:	89 c2                	mov    %eax,%edx
  401432:	48 8b 45 f8          	mov    -0x8(%rbp),%rax
  401436:	88 50 07             	mov    %dl,0x7(%rax)
  401439:	8b 45 f0             	mov    -0x10(%rbp),%eax
  40143c:	c1 e8 10             	shr    $0x10,%eax
  40143f:	89 c2                	mov    %eax,%edx
  401441:	48 8b 45 f8          	mov    -0x8(%rbp),%rax
  401445:	88 50 06             	mov    %dl,0x6(%rax)
  401448:	8b 45 f0             	mov    -0x10(%rbp),%eax
  40144b:	c1 e8 08             	shr    $0x8,%eax
  40144e:	89 c2                	mov    %eax,%edx
  401450:	48 8b 45 f8          	mov    -0x8(%rbp),%rax
  401454:	88 50 05             	mov    %dl,0x5(%rax)
  401457:	8b 45 f0             	mov    -0x10(%rbp),%eax
  40145a:	89 c2                	mov    %eax,%edx
  40145c:	48 8b 45 f8          	mov    -0x8(%rbp),%rax
  401460:	88 50 04             	mov    %dl,0x4(%rax)
  401463:	8b 45 f4             	mov    -0xc(%rbp),%eax
  401466:	c1 e8 18             	shr    $0x18,%eax
  401469:	89 c2                	mov    %eax,%edx
  40146b:	48 8b 45 f8          	mov    -0x8(%rbp),%rax
  40146f:	88 50 03             	mov    %dl,0x3(%rax)
  401472:	8b 45 f4             	mov    -0xc(%rbp),%eax
  401475:	c1 e8 10             	shr    $0x10,%eax
  401478:	89 c2                	mov    %eax,%edx
  40147a:	48 8b 45 f8          	mov    -0x8(%rbp),%rax
  40147e:	88 50 02             	mov    %dl,0x2(%rax)
  401481:	8b 45 f4             	mov    -0xc(%rbp),%eax
  401484:	c1 e8 08             	shr    $0x8,%eax
  401487:	89 c2                	mov    %eax,%edx
  401489:	48 8b 45 f8          	mov    -0x8(%rbp),%rax
  40148d:	88 50 01             	mov    %dl,0x1(%rax)
  401490:	8b 45 f4             	mov    -0xc(%rbp),%eax
  401493:	89 c2                	mov    %eax,%edx
  401495:	48 8b 45 f8          	mov    -0x8(%rbp),%rax
  401499:	88 10                	mov    %dl,(%rax)
  40149b:	5d                   	pop    %rbp
  40149c:	c3                   	retq   

000000000040149d <uInt64_to_double>:
  40149d:	55                   	push   %rbp
  40149e:	48 89 e5             	mov    %rsp,%rbp
  4014a1:	48 89 7d d8          	mov    %rdi,-0x28(%rbp)
  4014a5:	48 b8 00 00 00 00 00 	movabs $0x3ff0000000000000,%rax
  4014ac:	00 f0 3f 
  4014af:	48 89 45 f0          	mov    %rax,-0x10(%rbp)
  4014b3:	b8 00 00 00 00       	mov    $0x0,%eax
  4014b8:	48 89 45 e8          	mov    %rax,-0x18(%rbp)
  4014bc:	c7 45 fc 00 00 00 00 	movl   $0x0,-0x4(%rbp)
  4014c3:	eb 41                	jmp    401506 <uInt64_to_double+0x69>
  4014c5:	48 8b 55 d8          	mov    -0x28(%rbp),%rdx
  4014c9:	8b 45 fc             	mov    -0x4(%rbp),%eax
  4014cc:	48 98                	cltq   
  4014ce:	0f b6 04 02          	movzbl (%rdx,%rax,1),%eax
  4014d2:	0f b6 c0             	movzbl %al,%eax
  4014d5:	f2 0f 2a c0          	cvtsi2sd %eax,%xmm0
  4014d9:	f2 0f 59 45 f0       	mulsd  -0x10(%rbp),%xmm0
  4014de:	f2 0f 10 4d e8       	movsd  -0x18(%rbp),%xmm1
  4014e3:	f2 0f 58 c1          	addsd  %xmm1,%xmm0
  4014e7:	f2 0f 11 45 e8       	movsd  %xmm0,-0x18(%rbp)
  4014ec:	f2 0f 10 4d f0       	movsd  -0x10(%rbp),%xmm1
  4014f1:	f2 0f 10 05 ff 8e 01 	movsd  0x18eff(%rip),%xmm0        # 41a3f8 <_IO_stdin_used+0x1db0>
  4014f8:	00 
  4014f9:	f2 0f 59 c1          	mulsd  %xmm1,%xmm0
  4014fd:	f2 0f 11 45 f0       	movsd  %xmm0,-0x10(%rbp)
  401502:	83 45 fc 01          	addl   $0x1,-0x4(%rbp)
  401506:	83 7d fc 07          	cmpl   $0x7,-0x4(%rbp)
  40150a:	7e b9                	jle    4014c5 <uInt64_to_double+0x28>
  40150c:	48 8b 45 e8          	mov    -0x18(%rbp),%rax
  401510:	48 89 45 d0          	mov    %rax,-0x30(%rbp)
  401514:	f2 0f 10 45 d0       	movsd  -0x30(%rbp),%xmm0
  401519:	5d                   	pop    %rbp
  40151a:	c3                   	retq   

000000000040151b <uInt64_isZero>:
  40151b:	55                   	push   %rbp
  40151c:	48 89 e5             	mov    %rsp,%rbp
  40151f:	48 89 7d e8          	mov    %rdi,-0x18(%rbp)
  401523:	c7 45 fc 00 00 00 00 	movl   $0x0,-0x4(%rbp)
  40152a:	eb 1c                	jmp    401548 <uInt64_isZero+0x2d>
  40152c:	48 8b 55 e8          	mov    -0x18(%rbp),%rdx
  401530:	8b 45 fc             	mov    -0x4(%rbp),%eax
  401533:	48 98                	cltq   
  401535:	0f b6 04 02          	movzbl (%rdx,%rax,1),%eax
  401539:	84 c0                	test   %al,%al
  40153b:	74 07                	je     401544 <uInt64_isZero+0x29>
  40153d:	b8 00 00 00 00       	mov    $0x0,%eax
  401542:	eb 0f                	jmp    401553 <uInt64_isZero+0x38>
  401544:	83 45 fc 01          	addl   $0x1,-0x4(%rbp)
  401548:	83 7d fc 07          	cmpl   $0x7,-0x4(%rbp)
  40154c:	7e de                	jle    40152c <uInt64_isZero+0x11>
  40154e:	b8 01 00 00 00       	mov    $0x1,%eax
  401553:	5d                   	pop    %rbp
  401554:	c3                   	retq   

0000000000401555 <uInt64_qrm10>:
  401555:	55                   	push   %rbp
  401556:	48 89 e5             	mov    %rsp,%rbp
  401559:	48 89 7d e8          	mov    %rdi,-0x18(%rbp)
  40155d:	c7 45 fc 00 00 00 00 	movl   $0x0,-0x4(%rbp)
  401564:	c7 45 f8 07 00 00 00 	movl   $0x7,-0x8(%rbp)
  40156b:	eb 65                	jmp    4015d2 <uInt64_qrm10+0x7d>
  40156d:	8b 45 fc             	mov    -0x4(%rbp),%eax
  401570:	89 c1                	mov    %eax,%ecx
  401572:	c1 e1 08             	shl    $0x8,%ecx
  401575:	48 8b 55 e8          	mov    -0x18(%rbp),%rdx
  401579:	8b 45 f8             	mov    -0x8(%rbp),%eax
  40157c:	48 98                	cltq   
  40157e:	0f b6 04 02          	movzbl (%rdx,%rax,1),%eax
  401582:	0f b6 c0             	movzbl %al,%eax
  401585:	01 c8                	add    %ecx,%eax
  401587:	89 45 f4             	mov    %eax,-0xc(%rbp)
  40158a:	8b 45 f4             	mov    -0xc(%rbp),%eax
  40158d:	89 45 e4             	mov    %eax,-0x1c(%rbp)
  401590:	ba cd cc cc cc       	mov    $0xcccccccd,%edx
  401595:	8b 45 e4             	mov    -0x1c(%rbp),%eax
  401598:	f7 e2                	mul    %edx
  40159a:	89 d0                	mov    %edx,%eax
  40159c:	c1 e8 03             	shr    $0x3,%eax
  40159f:	89 c1                	mov    %eax,%ecx
  4015a1:	48 8b 55 e8          	mov    -0x18(%rbp),%rdx
  4015a5:	8b 45 f8             	mov    -0x8(%rbp),%eax
  4015a8:	48 98                	cltq   
  4015aa:	88 0c 02             	mov    %cl,(%rdx,%rax,1)
  4015ad:	8b 4d f4             	mov    -0xc(%rbp),%ecx
  4015b0:	ba cd cc cc cc       	mov    $0xcccccccd,%edx
  4015b5:	89 c8                	mov    %ecx,%eax
  4015b7:	f7 e2                	mul    %edx
  4015b9:	c1 ea 03             	shr    $0x3,%edx
  4015bc:	89 d0                	mov    %edx,%eax
  4015be:	c1 e0 02             	shl    $0x2,%eax
  4015c1:	01 d0                	add    %edx,%eax
  4015c3:	01 c0                	add    %eax,%eax
  4015c5:	89 ca                	mov    %ecx,%edx
  4015c7:	29 c2                	sub    %eax,%edx
  4015c9:	89 d0                	mov    %edx,%eax
  4015cb:	89 45 fc             	mov    %eax,-0x4(%rbp)
  4015ce:	83 6d f8 01          	subl   $0x1,-0x8(%rbp)
  4015d2:	83 7d f8 00          	cmpl   $0x0,-0x8(%rbp)
  4015d6:	79 95                	jns    40156d <uInt64_qrm10+0x18>
  4015d8:	8b 45 fc             	mov    -0x4(%rbp),%eax
  4015db:	5d                   	pop    %rbp
  4015dc:	c3                   	retq   

00000000004015dd <uInt64_toAscii>:
  4015dd:	55                   	push   %rbp
  4015de:	48 89 e5             	mov    %rsp,%rbp
  4015e1:	48 83 ec 60          	sub    $0x60,%rsp
  4015e5:	48 89 7d a8          	mov    %rdi,-0x58(%rbp)
  4015e9:	48 89 75 a0          	mov    %rsi,-0x60(%rbp)
  4015ed:	c7 45 fc 00 00 00 00 	movl   $0x0,-0x4(%rbp)
  4015f4:	48 8b 45 a0          	mov    -0x60(%rbp),%rax
  4015f8:	48 8b 00             	mov    (%rax),%rax
  4015fb:	48 89 45 b0          	mov    %rax,-0x50(%rbp)
  4015ff:	48 8d 45 b0          	lea    -0x50(%rbp),%rax
  401603:	48 89 c7             	mov    %rax,%rdi
  401606:	e8 4a ff ff ff       	callq  401555 <uInt64_qrm10>
  40160b:	89 45 f8             	mov    %eax,-0x8(%rbp)
  40160e:	8b 45 f8             	mov    -0x8(%rbp),%eax
  401611:	8d 50 30             	lea    0x30(%rax),%edx
  401614:	8b 45 fc             	mov    -0x4(%rbp),%eax
  401617:	48 98                	cltq   
  401619:	88 54 05 c0          	mov    %dl,-0x40(%rbp,%rax,1)
  40161d:	83 45 fc 01          	addl   $0x1,-0x4(%rbp)
  401621:	48 8d 45 b0          	lea    -0x50(%rbp),%rax
  401625:	48 89 c7             	mov    %rax,%rdi
  401628:	e8 ee fe ff ff       	callq  40151b <uInt64_isZero>
  40162d:	84 c0                	test   %al,%al
  40162f:	74 ce                	je     4015ff <uInt64_toAscii+0x22>
  401631:	8b 45 fc             	mov    -0x4(%rbp),%eax
  401634:	48 63 d0             	movslq %eax,%rdx
  401637:	48 8b 45 a8          	mov    -0x58(%rbp),%rax
  40163b:	48 01 d0             	add    %rdx,%rax
  40163e:	c6 00 00             	movb   $0x0,(%rax)
  401641:	48 8b 45 a8          	mov    -0x58(%rbp),%rax
  401645:	48 89 45 e0          	mov    %rax,-0x20(%rbp)
  401649:	48 8d 45 c0          	lea    -0x40(%rbp),%rax
  40164d:	48 89 45 e8          	mov    %rax,-0x18(%rbp)
  401651:	8b 45 fc             	mov    -0x4(%rbp),%eax
  401654:	89 45 f0             	mov    %eax,-0x10(%rbp)
  401657:	48 8d 45 e0          	lea    -0x20(%rbp),%rax
  40165b:	ba 00 00 00 00       	mov    $0x0,%edx
  401660:	48 89 c6             	mov    %rax,%rsi
  401663:	bf 07 4e 40 00       	mov    $0x404e07,%edi
  401668:	e8 73 fa ff ff       	callq  4010e0 <GOMP_parallel_start@plt>
  40166d:	48 8d 45 e0          	lea    -0x20(%rbp),%rax
  401671:	48 89 c7             	mov    %rax,%rdi
  401674:	e8 8e 37 00 00       	callq  404e07 <uInt64_toAscii._omp_fn.2>
  401679:	e8 b2 fa ff ff       	callq  401130 <GOMP_parallel_end@plt>
  40167e:	48 8b 45 e0          	mov    -0x20(%rbp),%rax
  401682:	48 89 45 a8          	mov    %rax,-0x58(%rbp)
  401686:	8b 45 f0             	mov    -0x10(%rbp),%eax
  401689:	89 45 fc             	mov    %eax,-0x4(%rbp)
  40168c:	c9                   	leaveq 
  40168d:	c3                   	retq   

000000000040168e <myfeof>:
  40168e:	55                   	push   %rbp
  40168f:	48 89 e5             	mov    %rsp,%rbp
  401692:	48 83 ec 20          	sub    $0x20,%rsp
  401696:	48 89 7d e8          	mov    %rdi,-0x18(%rbp)
  40169a:	48 8b 45 e8          	mov    -0x18(%rbp),%rax
  40169e:	48 89 c7             	mov    %rax,%rdi
  4016a1:	e8 da fa ff ff       	callq  401180 <fgetc@plt>
  4016a6:	89 45 fc             	mov    %eax,-0x4(%rbp)
  4016a9:	83 7d fc ff          	cmpl   $0xffffffff,-0x4(%rbp)
  4016ad:	75 07                	jne    4016b6 <myfeof+0x28>
  4016af:	b8 01 00 00 00       	mov    $0x1,%eax
  4016b4:	eb 16                	jmp    4016cc <myfeof+0x3e>
  4016b6:	48 8b 55 e8          	mov    -0x18(%rbp),%rdx
  4016ba:	8b 45 fc             	mov    -0x4(%rbp),%eax
  4016bd:	48 89 d6             	mov    %rdx,%rsi
  4016c0:	89 c7                	mov    %eax,%edi
  4016c2:	e8 79 fb ff ff       	callq  401240 <ungetc@plt>
  4016c7:	b8 00 00 00 00       	mov    $0x0,%eax
  4016cc:	c9                   	leaveq 
  4016cd:	c3                   	retq   

00000000004016ce <compressStream>:
  4016ce:	55                   	push   %rbp
  4016cf:	48 89 e5             	mov    %rsp,%rbp
  4016d2:	48 81 ec 50 14 00 00 	sub    $0x1450,%rsp
  4016d9:	48 89 bd d8 eb ff ff 	mov    %rdi,-0x1428(%rbp)
  4016e0:	48 89 b5 d0 eb ff ff 	mov    %rsi,-0x1430(%rbp)
  4016e7:	48 c7 45 f8 00 00 00 	movq   $0x0,-0x8(%rbp)
  4016ee:	00 
  4016ef:	48 8b 85 d8 eb ff ff 	mov    -0x1428(%rbp),%rax
  4016f6:	48 89 c7             	mov    %rax,%rdi
  4016f9:	e8 f2 f9 ff ff       	callq  4010f0 <ferror@plt>
  4016fe:	85 c0                	test   %eax,%eax
  401700:	0f 85 c7 03 00 00    	jne    401acd <compressStream+0x3ff>
  401706:	48 8b 85 d0 eb ff ff 	mov    -0x1430(%rbp),%rax
  40170d:	48 89 c7             	mov    %rax,%rdi
  401710:	e8 db f9 ff ff       	callq  4010f0 <ferror@plt>
  401715:	85 c0                	test   %eax,%eax
  401717:	0f 85 b3 03 00 00    	jne    401ad0 <compressStream+0x402>
  40171d:	8b 3d 69 c4 21 00    	mov    0x21c469(%rip),%edi        # 61db8c <workFactor>
  401723:	8b 0d 43 c0 21 00    	mov    0x21c043(%rip),%ecx        # 61d76c <verbosity>
  401729:	8b 15 81 c4 21 00    	mov    0x21c481(%rip),%edx        # 61dbb0 <blockSize100k>
  40172f:	48 8b b5 d0 eb ff ff 	mov    -0x1430(%rbp),%rsi
  401736:	48 8d 85 3c ec ff ff 	lea    -0x13c4(%rbp),%rax
  40173d:	41 89 f8             	mov    %edi,%r8d
  401740:	48 89 c7             	mov    %rax,%rdi
  401743:	e8 b2 64 00 00       	callq  407bfa <BZ2_bzWriteOpen>
  401748:	48 89 45 f8          	mov    %rax,-0x8(%rbp)
  40174c:	8b 85 3c ec ff ff    	mov    -0x13c4(%rbp),%eax
  401752:	85 c0                	test   %eax,%eax
  401754:	0f 85 0f 03 00 00    	jne    401a69 <compressStream+0x39b>
  40175a:	8b 05 0c c0 21 00    	mov    0x21c00c(%rip),%eax        # 61d76c <verbosity>
  401760:	83 f8 01             	cmp    $0x1,%eax
  401763:	7e 17                	jle    40177c <compressStream+0xae>
  401765:	48 8b 05 44 bb 21 00 	mov    0x21bb44(%rip),%rax        # 61d2b0 <stderr@@GLIBC_2.2.5>
  40176c:	48 89 c6             	mov    %rax,%rsi
  40176f:	bf 0a 00 00 00       	mov    $0xa,%edi
  401774:	e8 27 fa ff ff       	callq  4011a0 <fputc@plt>
  401779:	eb 01                	jmp    40177c <compressStream+0xae>
  40177b:	90                   	nop
  40177c:	48 8b 85 d8 eb ff ff 	mov    -0x1428(%rbp),%rax
  401783:	48 89 c7             	mov    %rax,%rdi
  401786:	e8 03 ff ff ff       	callq  40168e <myfeof>
  40178b:	84 c0                	test   %al,%al
  40178d:	75 6f                	jne    4017fe <compressStream+0x130>
  40178f:	48 8b 95 d8 eb ff ff 	mov    -0x1428(%rbp),%rdx
  401796:	48 8d 85 50 ec ff ff 	lea    -0x13b0(%rbp),%rax
  40179d:	48 89 d1             	mov    %rdx,%rcx
  4017a0:	ba 88 13 00 00       	mov    $0x1388,%edx
  4017a5:	be 01 00 00 00       	mov    $0x1,%esi
  4017aa:	48 89 c7             	mov    %rax,%rdi
  4017ad:	e8 5e f9 ff ff       	callq  401110 <fread@plt>
  4017b2:	89 45 dc             	mov    %eax,-0x24(%rbp)
  4017b5:	48 8b 85 d8 eb ff ff 	mov    -0x1428(%rbp),%rax
  4017bc:	48 89 c7             	mov    %rax,%rdi
  4017bf:	e8 2c f9 ff ff       	callq  4010f0 <ferror@plt>
  4017c4:	85 c0                	test   %eax,%eax
  4017c6:	0f 85 07 03 00 00    	jne    401ad3 <compressStream+0x405>
  4017cc:	83 7d dc 00          	cmpl   $0x0,-0x24(%rbp)
  4017d0:	7e 1d                	jle    4017ef <compressStream+0x121>
  4017d2:	8b 4d dc             	mov    -0x24(%rbp),%ecx
  4017d5:	48 8d 95 50 ec ff ff 	lea    -0x13b0(%rbp),%rdx
  4017dc:	48 8b 75 f8          	mov    -0x8(%rbp),%rsi
  4017e0:	48 8d 85 3c ec ff ff 	lea    -0x13c4(%rbp),%rax
  4017e7:	48 89 c7             	mov    %rax,%rdi
  4017ea:	e8 3f 66 00 00       	callq  407e2e <BZ2_bzWrite>
  4017ef:	8b 85 3c ec ff ff    	mov    -0x13c4(%rbp),%eax
  4017f5:	85 c0                	test   %eax,%eax
  4017f7:	74 82                	je     40177b <compressStream+0xad>
  4017f9:	e9 6f 02 00 00       	jmpq   401a6d <compressStream+0x39f>
  4017fe:	90                   	nop
  4017ff:	4c 8d 85 44 ec ff ff 	lea    -0x13bc(%rbp),%r8
  401806:	48 8d bd 48 ec ff ff 	lea    -0x13b8(%rbp),%rdi
  40180d:	48 8d 95 4c ec ff ff 	lea    -0x13b4(%rbp),%rdx
  401814:	48 8b 75 f8          	mov    -0x8(%rbp),%rsi
  401818:	48 8d 85 3c ec ff ff 	lea    -0x13c4(%rbp),%rax
  40181f:	48 8d 8d 40 ec ff ff 	lea    -0x13c0(%rbp),%rcx
  401826:	48 89 0c 24          	mov    %rcx,(%rsp)
  40182a:	4d 89 c1             	mov    %r8,%r9
  40182d:	49 89 f8             	mov    %rdi,%r8
  401830:	48 89 d1             	mov    %rdx,%rcx
  401833:	ba 00 00 00 00       	mov    $0x0,%edx
  401838:	48 89 c7             	mov    %rax,%rdi
  40183b:	e8 e7 68 00 00       	callq  408127 <BZ2_bzWriteClose64>
  401840:	8b 85 3c ec ff ff    	mov    -0x13c4(%rbp),%eax
  401846:	85 c0                	test   %eax,%eax
  401848:	0f 85 1e 02 00 00    	jne    401a6c <compressStream+0x39e>
  40184e:	48 8b 85 d0 eb ff ff 	mov    -0x1430(%rbp),%rax
  401855:	48 89 c7             	mov    %rax,%rdi
  401858:	e8 93 f8 ff ff       	callq  4010f0 <ferror@plt>
  40185d:	85 c0                	test   %eax,%eax
  40185f:	0f 85 71 02 00 00    	jne    401ad6 <compressStream+0x408>
  401865:	48 8b 85 d0 eb ff ff 	mov    -0x1430(%rbp),%rax
  40186c:	48 89 c7             	mov    %rax,%rdi
  40186f:	e8 bc f9 ff ff       	callq  401230 <fflush@plt>
  401874:	89 45 f4             	mov    %eax,-0xc(%rbp)
  401877:	83 7d f4 ff          	cmpl   $0xffffffff,-0xc(%rbp)
  40187b:	0f 84 58 02 00 00    	je     401ad9 <compressStream+0x40b>
  401881:	48 8b 05 18 ba 21 00 	mov    0x21ba18(%rip),%rax        # 61d2a0 <stdout@@GLIBC_2.2.5>
  401888:	48 39 85 d0 eb ff ff 	cmp    %rax,-0x1430(%rbp)
  40188f:	74 27                	je     4018b8 <compressStream+0x1ea>
  401891:	48 8b 85 d0 eb ff ff 	mov    -0x1430(%rbp),%rax
  401898:	48 89 c7             	mov    %rax,%rdi
  40189b:	e8 80 f8 ff ff       	callq  401120 <fclose@plt>
  4018a0:	89 45 f4             	mov    %eax,-0xc(%rbp)
  4018a3:	48 c7 05 ea c2 21 00 	movq   $0x0,0x21c2ea(%rip)        # 61db98 <outputHandleJustInCase>
  4018aa:	00 00 00 00 
  4018ae:	83 7d f4 ff          	cmpl   $0xffffffff,-0xc(%rbp)
  4018b2:	0f 84 24 02 00 00    	je     401adc <compressStream+0x40e>
  4018b8:	48 c7 05 d5 c2 21 00 	movq   $0x0,0x21c2d5(%rip)        # 61db98 <outputHandleJustInCase>
  4018bf:	00 00 00 00 
  4018c3:	48 8b 85 d8 eb ff ff 	mov    -0x1428(%rbp),%rax
  4018ca:	48 89 c7             	mov    %rax,%rdi
  4018cd:	e8 1e f8 ff ff       	callq  4010f0 <ferror@plt>
  4018d2:	85 c0                	test   %eax,%eax
  4018d4:	0f 85 05 02 00 00    	jne    401adf <compressStream+0x411>
  4018da:	48 8b 85 d8 eb ff ff 	mov    -0x1428(%rbp),%rax
  4018e1:	48 89 c7             	mov    %rax,%rdi
  4018e4:	e8 37 f8 ff ff       	callq  401120 <fclose@plt>
  4018e9:	89 45 f4             	mov    %eax,-0xc(%rbp)
  4018ec:	83 7d f4 ff          	cmpl   $0xffffffff,-0xc(%rbp)
  4018f0:	0f 84 ec 01 00 00    	je     401ae2 <compressStream+0x414>
  4018f6:	8b 05 70 be 21 00    	mov    0x21be70(%rip),%eax        # 61d76c <verbosity>
  4018fc:	85 c0                	test   %eax,%eax
  4018fe:	0f 8e ee 01 00 00    	jle    401af2 <compressStream+0x424>
  401904:	8b 85 4c ec ff ff    	mov    -0x13b4(%rbp),%eax
  40190a:	85 c0                	test   %eax,%eax
  40190c:	75 2d                	jne    40193b <compressStream+0x26d>
  40190e:	8b 85 48 ec ff ff    	mov    -0x13b8(%rbp),%eax
  401914:	85 c0                	test   %eax,%eax
  401916:	75 23                	jne    40193b <compressStream+0x26d>
  401918:	48 8b 05 91 b9 21 00 	mov    0x21b991(%rip),%rax        # 61d2b0 <stderr@@GLIBC_2.2.5>
  40191f:	48 89 c1             	mov    %rax,%rcx
  401922:	ba 15 00 00 00       	mov    $0x15,%edx
  401927:	be 01 00 00 00       	mov    $0x1,%esi
  40192c:	bf 50 86 41 00       	mov    $0x418650,%edi
  401931:	e8 9a f9 ff ff       	callq  4012d0 <fwrite@plt>
  401936:	e9 b7 01 00 00       	jmpq   401af2 <compressStream+0x424>
  40193b:	8b 95 48 ec ff ff    	mov    -0x13b8(%rbp),%edx
  401941:	8b 8d 4c ec ff ff    	mov    -0x13b4(%rbp),%ecx
  401947:	48 8d 85 30 ec ff ff 	lea    -0x13d0(%rbp),%rax
  40194e:	89 ce                	mov    %ecx,%esi
  401950:	48 89 c7             	mov    %rax,%rdi
  401953:	e8 c4 fa ff ff       	callq  40141c <uInt64_from_UInt32s>
  401958:	8b 95 40 ec ff ff    	mov    -0x13c0(%rbp),%edx
  40195e:	8b 8d 44 ec ff ff    	mov    -0x13bc(%rbp),%ecx
  401964:	48 8d 85 20 ec ff ff 	lea    -0x13e0(%rbp),%rax
  40196b:	89 ce                	mov    %ecx,%esi
  40196d:	48 89 c7             	mov    %rax,%rdi
  401970:	e8 a7 fa ff ff       	callq  40141c <uInt64_from_UInt32s>
  401975:	48 8d 85 30 ec ff ff 	lea    -0x13d0(%rbp),%rax
  40197c:	48 89 c7             	mov    %rax,%rdi
  40197f:	e8 19 fb ff ff       	callq  40149d <uInt64_to_double>
  401984:	f2 0f 11 85 c8 eb ff 	movsd  %xmm0,-0x1438(%rbp)
  40198b:	ff 
  40198c:	48 8b 85 c8 eb ff ff 	mov    -0x1438(%rbp),%rax
  401993:	48 89 45 e8          	mov    %rax,-0x18(%rbp)
  401997:	48 8d 85 20 ec ff ff 	lea    -0x13e0(%rbp),%rax
  40199e:	48 89 c7             	mov    %rax,%rdi
  4019a1:	e8 f7 fa ff ff       	callq  40149d <uInt64_to_double>
  4019a6:	f2 0f 11 85 c8 eb ff 	movsd  %xmm0,-0x1438(%rbp)
  4019ad:	ff 
  4019ae:	48 8b 85 c8 eb ff ff 	mov    -0x1438(%rbp),%rax
  4019b5:	48 89 45 e0          	mov    %rax,-0x20(%rbp)
  4019b9:	48 8d 95 30 ec ff ff 	lea    -0x13d0(%rbp),%rdx
  4019c0:	48 8d 85 e0 eb ff ff 	lea    -0x1420(%rbp),%rax
  4019c7:	48 89 d6             	mov    %rdx,%rsi
  4019ca:	48 89 c7             	mov    %rax,%rdi
  4019cd:	e8 0b fc ff ff       	callq  4015dd <uInt64_toAscii>
  4019d2:	48 8d 95 20 ec ff ff 	lea    -0x13e0(%rbp),%rdx
  4019d9:	48 8d 85 00 ec ff ff 	lea    -0x1400(%rbp),%rax
  4019e0:	48 89 d6             	mov    %rdx,%rsi
  4019e3:	48 89 c7             	mov    %rax,%rdi
  4019e6:	e8 f2 fb ff ff       	callq  4015dd <uInt64_toAscii>
  4019eb:	f2 0f 10 45 e0       	movsd  -0x20(%rbp),%xmm0
  4019f0:	f2 0f 5e 45 e8       	divsd  -0x18(%rbp),%xmm0
  4019f5:	f2 0f 10 0d f3 89 01 	movsd  0x189f3(%rip),%xmm1        # 41a3f0 <_IO_stdin_used+0x1da8>
  4019fc:	00 
  4019fd:	66 0f 28 d1          	movapd %xmm1,%xmm2
  401a01:	f2 0f 5c d0          	subsd  %xmm0,%xmm2
  401a05:	66 0f 28 c2          	movapd %xmm2,%xmm0
  401a09:	f2 0f 10 0d ef 89 01 	movsd  0x189ef(%rip),%xmm1        # 41a400 <_IO_stdin_used+0x1db8>
  401a10:	00 
  401a11:	66 0f 28 d0          	movapd %xmm0,%xmm2
  401a15:	f2 0f 59 d1          	mulsd  %xmm1,%xmm2
  401a19:	f2 0f 10 4d e0       	movsd  -0x20(%rbp),%xmm1
  401a1e:	f2 0f 10 05 e2 89 01 	movsd  0x189e2(%rip),%xmm0        # 41a408 <_IO_stdin_used+0x1dc0>
  401a25:	00 
  401a26:	f2 0f 59 c1          	mulsd  %xmm1,%xmm0
  401a2a:	66 0f 28 c8          	movapd %xmm0,%xmm1
  401a2e:	f2 0f 5e 4d e8       	divsd  -0x18(%rbp),%xmm1
  401a33:	f2 0f 10 45 e8       	movsd  -0x18(%rbp),%xmm0
  401a38:	f2 0f 5e 45 e0       	divsd  -0x20(%rbp),%xmm0
  401a3d:	48 8b 05 6c b8 21 00 	mov    0x21b86c(%rip),%rax        # 61d2b0 <stderr@@GLIBC_2.2.5>
  401a44:	48 8d 8d 00 ec ff ff 	lea    -0x1400(%rbp),%rcx
  401a4b:	48 8d 95 e0 eb ff ff 	lea    -0x1420(%rbp),%rdx
  401a52:	be 68 86 41 00       	mov    $0x418668,%esi
  401a57:	48 89 c7             	mov    %rax,%rdi
  401a5a:	b8 03 00 00 00       	mov    $0x3,%eax
  401a5f:	e8 8c f7 ff ff       	callq  4011f0 <fprintf@plt>
  401a64:	e9 89 00 00 00       	jmpq   401af2 <compressStream+0x424>
  401a69:	90                   	nop
  401a6a:	eb 01                	jmp    401a6d <compressStream+0x39f>
  401a6c:	90                   	nop
  401a6d:	4c 8d 85 44 ec ff ff 	lea    -0x13bc(%rbp),%r8
  401a74:	48 8d bd 48 ec ff ff 	lea    -0x13b8(%rbp),%rdi
  401a7b:	48 8d 95 4c ec ff ff 	lea    -0x13b4(%rbp),%rdx
  401a82:	48 8b 75 f8          	mov    -0x8(%rbp),%rsi
  401a86:	48 8d 85 38 ec ff ff 	lea    -0x13c8(%rbp),%rax
  401a8d:	48 8d 8d 40 ec ff ff 	lea    -0x13c0(%rbp),%rcx
  401a94:	48 89 0c 24          	mov    %rcx,(%rsp)
  401a98:	4d 89 c1             	mov    %r8,%r9
  401a9b:	49 89 f8             	mov    %rdi,%r8
  401a9e:	48 89 d1             	mov    %rdx,%rcx
  401aa1:	ba 01 00 00 00       	mov    $0x1,%edx
  401aa6:	48 89 c7             	mov    %rax,%rdi
  401aa9:	e8 79 66 00 00       	callq  408127 <BZ2_bzWriteClose64>
  401aae:	8b 85 3c ec ff ff    	mov    -0x13c4(%rbp),%eax
  401ab4:	83 f8 fa             	cmp    $0xfffffffa,%eax
  401ab7:	74 2a                	je     401ae3 <compressStream+0x415>
  401ab9:	83 f8 fd             	cmp    $0xfffffffd,%eax
  401abc:	74 0a                	je     401ac8 <compressStream+0x3fa>
  401abe:	83 f8 f7             	cmp    $0xfffffff7,%eax
  401ac1:	75 25                	jne    401ae8 <compressStream+0x41a>
  401ac3:	e8 83 0c 00 00       	callq  40274b <configError>
  401ac8:	e8 4b 0c 00 00       	callq  402718 <outOfMemory>
  401acd:	90                   	nop
  401ace:	eb 13                	jmp    401ae3 <compressStream+0x415>
  401ad0:	90                   	nop
  401ad1:	eb 10                	jmp    401ae3 <compressStream+0x415>
  401ad3:	90                   	nop
  401ad4:	eb 0d                	jmp    401ae3 <compressStream+0x415>
  401ad6:	90                   	nop
  401ad7:	eb 0a                	jmp    401ae3 <compressStream+0x415>
  401ad9:	90                   	nop
  401ada:	eb 07                	jmp    401ae3 <compressStream+0x415>
  401adc:	90                   	nop
  401add:	eb 04                	jmp    401ae3 <compressStream+0x415>
  401adf:	90                   	nop
  401ae0:	eb 01                	jmp    401ae3 <compressStream+0x415>
  401ae2:	90                   	nop
  401ae3:	e8 38 0b 00 00       	callq  402620 <ioError>
  401ae8:	bf a1 86 41 00       	mov    $0x4186a1,%edi
  401aed:	e8 65 0a 00 00       	callq  402557 <panic>
  401af2:	c9                   	leaveq 
  401af3:	c3                   	retq   

0000000000401af4 <uncompressStream>:
  401af4:	55                   	push   %rbp
  401af5:	48 89 e5             	mov    %rsp,%rbp
  401af8:	48 81 ec 80 27 00 00 	sub    $0x2780,%rsp
  401aff:	48 89 bd 88 d8 ff ff 	mov    %rdi,-0x2778(%rbp)
  401b06:	48 89 b5 80 d8 ff ff 	mov    %rsi,-0x2780(%rbp)
  401b0d:	48 c7 45 f0 00 00 00 	movq   $0x0,-0x10(%rbp)
  401b14:	00 
  401b15:	c7 85 9c d8 ff ff 00 	movl   $0x0,-0x2764(%rbp)
  401b1c:	00 00 00 
  401b1f:	c7 45 fc 00 00 00 00 	movl   $0x0,-0x4(%rbp)
  401b26:	48 8b 85 80 d8 ff ff 	mov    -0x2780(%rbp),%rax
  401b2d:	48 89 c7             	mov    %rax,%rdi
  401b30:	e8 bb f5 ff ff       	callq  4010f0 <ferror@plt>
  401b35:	85 c0                	test   %eax,%eax
  401b37:	0f 85 94 03 00 00    	jne    401ed1 <uncompressStream+0x3dd>
  401b3d:	48 8b 85 88 d8 ff ff 	mov    -0x2778(%rbp),%rax
  401b44:	48 89 c7             	mov    %rax,%rdi
  401b47:	e8 a4 f5 ff ff       	callq  4010f0 <ferror@plt>
  401b4c:	85 c0                	test   %eax,%eax
  401b4e:	0f 85 80 03 00 00    	jne    401ed4 <uncompressStream+0x3e0>
  401b54:	eb 01                	jmp    401b57 <uncompressStream+0x63>
  401b56:	90                   	nop
  401b57:	44 8b 85 9c d8 ff ff 	mov    -0x2764(%rbp),%r8d
  401b5e:	0f b6 05 2f c0 21 00 	movzbl 0x21c02f(%rip),%eax        # 61db94 <smallMode>
  401b65:	0f b6 c8             	movzbl %al,%ecx
  401b68:	8b 15 fe bb 21 00    	mov    0x21bbfe(%rip),%edx        # 61d76c <verbosity>
  401b6e:	48 8d bd a0 d8 ff ff 	lea    -0x2760(%rbp),%rdi
  401b75:	48 8b b5 88 d8 ff ff 	mov    -0x2778(%rbp),%rsi
  401b7c:	48 8d 45 bc          	lea    -0x44(%rbp),%rax
  401b80:	45 89 c1             	mov    %r8d,%r9d
  401b83:	49 89 f8             	mov    %rdi,%r8
  401b86:	48 89 c7             	mov    %rax,%rdi
  401b89:	e8 14 69 00 00       	callq  4084a2 <BZ2_bzReadOpen>
  401b8e:	48 89 45 f0          	mov    %rax,-0x10(%rbp)
  401b92:	48 83 7d f0 00       	cmpq   $0x0,-0x10(%rbp)
  401b97:	0f 84 01 03 00 00    	je     401e9e <uncompressStream+0x3aa>
  401b9d:	8b 45 bc             	mov    -0x44(%rbp),%eax
  401ba0:	85 c0                	test   %eax,%eax
  401ba2:	0f 85 f6 02 00 00    	jne    401e9e <uncompressStream+0x3aa>
  401ba8:	83 45 fc 01          	addl   $0x1,-0x4(%rbp)
  401bac:	eb 78                	jmp    401c26 <uncompressStream+0x132>
  401bae:	48 8d 95 30 ec ff ff 	lea    -0x13d0(%rbp),%rdx
  401bb5:	48 8b 75 f0          	mov    -0x10(%rbp),%rsi
  401bb9:	48 8d 45 bc          	lea    -0x44(%rbp),%rax
  401bbd:	b9 88 13 00 00       	mov    $0x1388,%ecx
  401bc2:	48 89 c7             	mov    %rax,%rdi
  401bc5:	e8 51 6c 00 00       	callq  40881b <BZ2_bzRead>
  401bca:	89 45 ec             	mov    %eax,-0x14(%rbp)
  401bcd:	8b 45 bc             	mov    -0x44(%rbp),%eax
  401bd0:	83 f8 fb             	cmp    $0xfffffffb,%eax
  401bd3:	0f 84 0c 02 00 00    	je     401de5 <uncompressStream+0x2f1>
  401bd9:	8b 45 bc             	mov    -0x44(%rbp),%eax
  401bdc:	85 c0                	test   %eax,%eax
  401bde:	74 08                	je     401be8 <uncompressStream+0xf4>
  401be0:	8b 45 bc             	mov    -0x44(%rbp),%eax
  401be3:	83 f8 04             	cmp    $0x4,%eax
  401be6:	75 27                	jne    401c0f <uncompressStream+0x11b>
  401be8:	83 7d ec 00          	cmpl   $0x0,-0x14(%rbp)
  401bec:	7e 21                	jle    401c0f <uncompressStream+0x11b>
  401bee:	8b 45 ec             	mov    -0x14(%rbp),%eax
  401bf1:	48 63 d0             	movslq %eax,%rdx
  401bf4:	48 8b 8d 80 d8 ff ff 	mov    -0x2780(%rbp),%rcx
  401bfb:	48 8d 85 30 ec ff ff 	lea    -0x13d0(%rbp),%rax
  401c02:	be 01 00 00 00       	mov    $0x1,%esi
  401c07:	48 89 c7             	mov    %rax,%rdi
  401c0a:	e8 c1 f6 ff ff       	callq  4012d0 <fwrite@plt>
  401c0f:	48 8b 85 80 d8 ff ff 	mov    -0x2780(%rbp),%rax
  401c16:	48 89 c7             	mov    %rax,%rdi
  401c19:	e8 d2 f4 ff ff       	callq  4010f0 <ferror@plt>
  401c1e:	85 c0                	test   %eax,%eax
  401c20:	0f 85 b1 02 00 00    	jne    401ed7 <uncompressStream+0x3e3>
  401c26:	8b 45 bc             	mov    -0x44(%rbp),%eax
  401c29:	85 c0                	test   %eax,%eax
  401c2b:	74 81                	je     401bae <uncompressStream+0xba>
  401c2d:	8b 45 bc             	mov    -0x44(%rbp),%eax
  401c30:	83 f8 04             	cmp    $0x4,%eax
  401c33:	0f 85 64 02 00 00    	jne    401e9d <uncompressStream+0x3a9>
  401c39:	48 8d 8d 9c d8 ff ff 	lea    -0x2764(%rbp),%rcx
  401c40:	48 8d 95 90 d8 ff ff 	lea    -0x2770(%rbp),%rdx
  401c47:	48 8b 75 f0          	mov    -0x10(%rbp),%rsi
  401c4b:	48 8d 45 bc          	lea    -0x44(%rbp),%rax
  401c4f:	48 89 c7             	mov    %rax,%rdi
  401c52:	e8 19 6f 00 00       	callq  408b70 <BZ2_bzReadGetUnused>
  401c57:	8b 45 bc             	mov    -0x44(%rbp),%eax
  401c5a:	85 c0                	test   %eax,%eax
  401c5c:	74 0a                	je     401c68 <uncompressStream+0x174>
  401c5e:	bf bb 86 41 00       	mov    $0x4186bb,%edi
  401c63:	e8 ef 08 00 00       	callq  402557 <panic>
  401c68:	48 8b 85 90 d8 ff ff 	mov    -0x2770(%rbp),%rax
  401c6f:	48 89 45 e0          	mov    %rax,-0x20(%rbp)
  401c73:	48 8d 85 a0 d8 ff ff 	lea    -0x2760(%rbp),%rax
  401c7a:	48 89 45 c0          	mov    %rax,-0x40(%rbp)
  401c7e:	48 8d 85 9c d8 ff ff 	lea    -0x2764(%rbp),%rax
  401c85:	48 89 45 c8          	mov    %rax,-0x38(%rbp)
  401c89:	48 8b 45 e0          	mov    -0x20(%rbp),%rax
  401c8d:	48 89 45 d0          	mov    %rax,-0x30(%rbp)
  401c91:	48 8d 45 c0          	lea    -0x40(%rbp),%rax
  401c95:	ba 00 00 00 00       	mov    $0x0,%edx
  401c9a:	48 89 c6             	mov    %rax,%rsi
  401c9d:	bf 6e 4d 40 00       	mov    $0x404d6e,%edi
  401ca2:	e8 39 f4 ff ff       	callq  4010e0 <GOMP_parallel_start@plt>
  401ca7:	48 8d 45 c0          	lea    -0x40(%rbp),%rax
  401cab:	48 89 c7             	mov    %rax,%rdi
  401cae:	e8 bb 30 00 00       	callq  404d6e <uncompressStream._omp_fn.1>
  401cb3:	e8 78 f4 ff ff       	callq  401130 <GOMP_parallel_end@plt>
  401cb8:	48 8b 45 d0          	mov    -0x30(%rbp),%rax
  401cbc:	48 89 45 e0          	mov    %rax,-0x20(%rbp)
  401cc0:	48 8b 55 f0          	mov    -0x10(%rbp),%rdx
  401cc4:	48 8d 45 bc          	lea    -0x44(%rbp),%rax
  401cc8:	48 89 d6             	mov    %rdx,%rsi
  401ccb:	48 89 c7             	mov    %rax,%rdi
  401cce:	e8 6f 6a 00 00       	callq  408742 <BZ2_bzReadClose>
  401cd3:	8b 45 bc             	mov    -0x44(%rbp),%eax
  401cd6:	85 c0                	test   %eax,%eax
  401cd8:	74 0a                	je     401ce4 <uncompressStream+0x1f0>
  401cda:	bf bb 86 41 00       	mov    $0x4186bb,%edi
  401cdf:	e8 73 08 00 00       	callq  402557 <panic>
  401ce4:	8b 85 9c d8 ff ff    	mov    -0x2764(%rbp),%eax
  401cea:	85 c0                	test   %eax,%eax
  401cec:	0f 85 64 fe ff ff    	jne    401b56 <uncompressStream+0x62>
  401cf2:	48 8b 85 88 d8 ff ff 	mov    -0x2778(%rbp),%rax
  401cf9:	48 89 c7             	mov    %rax,%rdi
  401cfc:	e8 8d f9 ff ff       	callq  40168e <myfeof>
  401d01:	84 c0                	test   %al,%al
  401d03:	0f 84 4d fe ff ff    	je     401b56 <uncompressStream+0x62>
  401d09:	90                   	nop
  401d0a:	48 8b 85 88 d8 ff ff 	mov    -0x2778(%rbp),%rax
  401d11:	48 89 c7             	mov    %rax,%rdi
  401d14:	e8 d7 f3 ff ff       	callq  4010f0 <ferror@plt>
  401d19:	85 c0                	test   %eax,%eax
  401d1b:	0f 85 b9 01 00 00    	jne    401eda <uncompressStream+0x3e6>
  401d21:	48 8b 85 88 d8 ff ff 	mov    -0x2778(%rbp),%rax
  401d28:	48 89 c7             	mov    %rax,%rdi
  401d2b:	e8 f0 f3 ff ff       	callq  401120 <fclose@plt>
  401d30:	89 45 dc             	mov    %eax,-0x24(%rbp)
  401d33:	83 7d dc ff          	cmpl   $0xffffffff,-0x24(%rbp)
  401d37:	0f 84 a0 01 00 00    	je     401edd <uncompressStream+0x3e9>
  401d3d:	48 8b 85 80 d8 ff ff 	mov    -0x2780(%rbp),%rax
  401d44:	48 89 c7             	mov    %rax,%rdi
  401d47:	e8 a4 f3 ff ff       	callq  4010f0 <ferror@plt>
  401d4c:	85 c0                	test   %eax,%eax
  401d4e:	0f 85 8c 01 00 00    	jne    401ee0 <uncompressStream+0x3ec>
  401d54:	48 8b 85 80 d8 ff ff 	mov    -0x2780(%rbp),%rax
  401d5b:	48 89 c7             	mov    %rax,%rdi
  401d5e:	e8 cd f4 ff ff       	callq  401230 <fflush@plt>
  401d63:	89 45 dc             	mov    %eax,-0x24(%rbp)
  401d66:	83 7d dc 00          	cmpl   $0x0,-0x24(%rbp)
  401d6a:	0f 85 73 01 00 00    	jne    401ee3 <uncompressStream+0x3ef>
  401d70:	48 8b 05 29 b5 21 00 	mov    0x21b529(%rip),%rax        # 61d2a0 <stdout@@GLIBC_2.2.5>
  401d77:	48 39 85 80 d8 ff ff 	cmp    %rax,-0x2780(%rbp)
  401d7e:	74 27                	je     401da7 <uncompressStream+0x2b3>
  401d80:	48 8b 85 80 d8 ff ff 	mov    -0x2780(%rbp),%rax
  401d87:	48 89 c7             	mov    %rax,%rdi
  401d8a:	e8 91 f3 ff ff       	callq  401120 <fclose@plt>
  401d8f:	89 45 dc             	mov    %eax,-0x24(%rbp)
  401d92:	48 c7 05 fb bd 21 00 	movq   $0x0,0x21bdfb(%rip)        # 61db98 <outputHandleJustInCase>
  401d99:	00 00 00 00 
  401d9d:	83 7d dc ff          	cmpl   $0xffffffff,-0x24(%rbp)
  401da1:	0f 84 3f 01 00 00    	je     401ee6 <uncompressStream+0x3f2>
  401da7:	48 c7 05 e6 bd 21 00 	movq   $0x0,0x21bde6(%rip)        # 61db98 <outputHandleJustInCase>
  401dae:	00 00 00 00 
  401db2:	8b 05 b4 b9 21 00    	mov    0x21b9b4(%rip),%eax        # 61d76c <verbosity>
  401db8:	83 f8 01             	cmp    $0x1,%eax
  401dbb:	7e 1e                	jle    401ddb <uncompressStream+0x2e7>
  401dbd:	48 8b 05 ec b4 21 00 	mov    0x21b4ec(%rip),%rax        # 61d2b0 <stderr@@GLIBC_2.2.5>
  401dc4:	48 89 c1             	mov    %rax,%rcx
  401dc7:	ba 05 00 00 00       	mov    $0x5,%edx
  401dcc:	be 01 00 00 00       	mov    $0x1,%esi
  401dd1:	bf d6 86 41 00       	mov    $0x4186d6,%edi
  401dd6:	e8 f5 f4 ff ff       	callq  4012d0 <fwrite@plt>
  401ddb:	b8 01 00 00 00       	mov    $0x1,%eax
  401de0:	e9 a5 01 00 00       	jmpq   401f8a <uncompressStream+0x496>
  401de5:	90                   	nop
  401de6:	0f b6 05 fe c5 21 00 	movzbl 0x21c5fe(%rip),%eax        # 61e3eb <forceOverwrite>
  401ded:	84 c0                	test   %al,%al
  401def:	0f 84 a9 00 00 00    	je     401e9e <uncompressStream+0x3aa>
  401df5:	48 8b 85 88 d8 ff ff 	mov    -0x2778(%rbp),%rax
  401dfc:	48 89 c7             	mov    %rax,%rdi
  401dff:	e8 6c f3 ff ff       	callq  401170 <rewind@plt>
  401e04:	eb 01                	jmp    401e07 <uncompressStream+0x313>
  401e06:	90                   	nop
  401e07:	48 8b 85 88 d8 ff ff 	mov    -0x2778(%rbp),%rax
  401e0e:	48 89 c7             	mov    %rax,%rdi
  401e11:	e8 78 f8 ff ff       	callq  40168e <myfeof>
  401e16:	84 c0                	test   %al,%al
  401e18:	75 7d                	jne    401e97 <uncompressStream+0x3a3>
  401e1a:	48 8b 95 88 d8 ff ff 	mov    -0x2778(%rbp),%rdx
  401e21:	48 8d 85 30 ec ff ff 	lea    -0x13d0(%rbp),%rax
  401e28:	48 89 d1             	mov    %rdx,%rcx
  401e2b:	ba 88 13 00 00       	mov    $0x1388,%edx
  401e30:	be 01 00 00 00       	mov    $0x1,%esi
  401e35:	48 89 c7             	mov    %rax,%rdi
  401e38:	e8 d3 f2 ff ff       	callq  401110 <fread@plt>
  401e3d:	89 45 ec             	mov    %eax,-0x14(%rbp)
  401e40:	48 8b 85 88 d8 ff ff 	mov    -0x2778(%rbp),%rax
  401e47:	48 89 c7             	mov    %rax,%rdi
  401e4a:	e8 a1 f2 ff ff       	callq  4010f0 <ferror@plt>
  401e4f:	85 c0                	test   %eax,%eax
  401e51:	0f 85 92 00 00 00    	jne    401ee9 <uncompressStream+0x3f5>
  401e57:	83 7d ec 00          	cmpl   $0x0,-0x14(%rbp)
  401e5b:	7e 21                	jle    401e7e <uncompressStream+0x38a>
  401e5d:	8b 45 ec             	mov    -0x14(%rbp),%eax
  401e60:	48 63 d0             	movslq %eax,%rdx
  401e63:	48 8b 8d 80 d8 ff ff 	mov    -0x2780(%rbp),%rcx
  401e6a:	48 8d 85 30 ec ff ff 	lea    -0x13d0(%rbp),%rax
  401e71:	be 01 00 00 00       	mov    $0x1,%esi
  401e76:	48 89 c7             	mov    %rax,%rdi
  401e79:	e8 52 f4 ff ff       	callq  4012d0 <fwrite@plt>
  401e7e:	48 8b 85 80 d8 ff ff 	mov    -0x2780(%rbp),%rax
  401e85:	48 89 c7             	mov    %rax,%rdi
  401e88:	e8 63 f2 ff ff       	callq  4010f0 <ferror@plt>
  401e8d:	85 c0                	test   %eax,%eax
  401e8f:	0f 84 71 ff ff ff    	je     401e06 <uncompressStream+0x312>
  401e95:	eb 53                	jmp    401eea <uncompressStream+0x3f6>
  401e97:	90                   	nop
  401e98:	e9 6d fe ff ff       	jmpq   401d0a <uncompressStream+0x216>
  401e9d:	90                   	nop
  401e9e:	48 8b 55 f0          	mov    -0x10(%rbp),%rdx
  401ea2:	48 8d 45 b8          	lea    -0x48(%rbp),%rax
  401ea6:	48 89 d6             	mov    %rdx,%rsi
  401ea9:	48 89 c7             	mov    %rax,%rdi
  401eac:	e8 91 68 00 00       	callq  408742 <BZ2_bzReadClose>
  401eb1:	8b 45 bc             	mov    -0x44(%rbp),%eax
  401eb4:	83 c0 09             	add    $0x9,%eax
  401eb7:	83 f8 06             	cmp    $0x6,%eax
  401eba:	0f 87 c0 00 00 00    	ja     401f80 <uncompressStream+0x48c>
  401ec0:	89 c0                	mov    %eax,%eax
  401ec2:	48 8b 04 c5 30 87 41 	mov    0x418730(,%rax,8),%rax
  401ec9:	00 
  401eca:	ff e0                	jmpq   *%rax
  401ecc:	e8 7a 08 00 00       	callq  40274b <configError>
  401ed1:	90                   	nop
  401ed2:	eb 16                	jmp    401eea <uncompressStream+0x3f6>
  401ed4:	90                   	nop
  401ed5:	eb 13                	jmp    401eea <uncompressStream+0x3f6>
  401ed7:	90                   	nop
  401ed8:	eb 10                	jmp    401eea <uncompressStream+0x3f6>
  401eda:	90                   	nop
  401edb:	eb 0d                	jmp    401eea <uncompressStream+0x3f6>
  401edd:	90                   	nop
  401ede:	eb 0a                	jmp    401eea <uncompressStream+0x3f6>
  401ee0:	90                   	nop
  401ee1:	eb 07                	jmp    401eea <uncompressStream+0x3f6>
  401ee3:	90                   	nop
  401ee4:	eb 04                	jmp    401eea <uncompressStream+0x3f6>
  401ee6:	90                   	nop
  401ee7:	eb 01                	jmp    401eea <uncompressStream+0x3f6>
  401ee9:	90                   	nop
  401eea:	e8 31 07 00 00       	callq  402620 <ioError>
  401eef:	e8 a2 06 00 00       	callq  402596 <crcError>
  401ef4:	e8 1f 08 00 00       	callq  402718 <outOfMemory>
  401ef9:	e8 d0 06 00 00       	callq  4025ce <compressedStreamEOF>
  401efe:	48 8b 05 a3 b3 21 00 	mov    0x21b3a3(%rip),%rax        # 61d2a8 <stdin@@GLIBC_2.2.5>
  401f05:	48 39 85 88 d8 ff ff 	cmp    %rax,-0x2778(%rbp)
  401f0c:	74 0f                	je     401f1d <uncompressStream+0x429>
  401f0e:	48 8b 85 88 d8 ff ff 	mov    -0x2778(%rbp),%rax
  401f15:	48 89 c7             	mov    %rax,%rdi
  401f18:	e8 03 f2 ff ff       	callq  401120 <fclose@plt>
  401f1d:	48 8b 05 7c b3 21 00 	mov    0x21b37c(%rip),%rax        # 61d2a0 <stdout@@GLIBC_2.2.5>
  401f24:	48 39 85 80 d8 ff ff 	cmp    %rax,-0x2780(%rbp)
  401f2b:	74 0f                	je     401f3c <uncompressStream+0x448>
  401f2d:	48 8b 85 80 d8 ff ff 	mov    -0x2780(%rbp),%rax
  401f34:	48 89 c7             	mov    %rax,%rdi
  401f37:	e8 e4 f1 ff ff       	callq  401120 <fclose@plt>
  401f3c:	83 7d fc 01          	cmpl   $0x1,-0x4(%rbp)
  401f40:	75 07                	jne    401f49 <uncompressStream+0x455>
  401f42:	b8 00 00 00 00       	mov    $0x0,%eax
  401f47:	eb 41                	jmp    401f8a <uncompressStream+0x496>
  401f49:	0f b6 05 68 bc 21 00 	movzbl 0x21bc68(%rip),%eax        # 61dbb8 <noisy>
  401f50:	84 c0                	test   %al,%al
  401f52:	74 25                	je     401f79 <uncompressStream+0x485>
  401f54:	48 8b 15 9d c4 21 00 	mov    0x21c49d(%rip),%rdx        # 61e3f8 <progName>
  401f5b:	48 8b 05 4e b3 21 00 	mov    0x21b34e(%rip),%rax        # 61d2b0 <stderr@@GLIBC_2.2.5>
  401f62:	b9 e0 df 61 00       	mov    $0x61dfe0,%ecx
  401f67:	be e0 86 41 00       	mov    $0x4186e0,%esi
  401f6c:	48 89 c7             	mov    %rax,%rdi
  401f6f:	b8 00 00 00 00       	mov    $0x0,%eax
  401f74:	e8 77 f2 ff ff       	callq  4011f0 <fprintf@plt>
  401f79:	b8 01 00 00 00       	mov    $0x1,%eax
  401f7e:	eb 0a                	jmp    401f8a <uncompressStream+0x496>
  401f80:	bf 0d 87 41 00       	mov    $0x41870d,%edi
  401f85:	e8 cd 05 00 00       	callq  402557 <panic>
  401f8a:	c9                   	leaveq 
  401f8b:	c3                   	retq   

0000000000401f8c <testStream>:
  401f8c:	55                   	push   %rbp
  401f8d:	48 89 e5             	mov    %rsp,%rbp
  401f90:	48 81 ec 80 27 00 00 	sub    $0x2780,%rsp
  401f97:	48 89 bd 88 d8 ff ff 	mov    %rdi,-0x2778(%rbp)
  401f9e:	48 c7 45 f0 00 00 00 	movq   $0x0,-0x10(%rbp)
  401fa5:	00 
  401fa6:	c7 85 9c d8 ff ff 00 	movl   $0x0,-0x2764(%rbp)
  401fad:	00 00 00 
  401fb0:	c7 45 fc 00 00 00 00 	movl   $0x0,-0x4(%rbp)
  401fb7:	48 8b 85 88 d8 ff ff 	mov    -0x2778(%rbp),%rax
  401fbe:	48 89 c7             	mov    %rax,%rdi
  401fc1:	e8 2a f1 ff ff       	callq  4010f0 <ferror@plt>
  401fc6:	85 c0                	test   %eax,%eax
  401fc8:	0f 85 35 02 00 00    	jne    402203 <testStream+0x277>
  401fce:	eb 01                	jmp    401fd1 <testStream+0x45>
  401fd0:	90                   	nop
  401fd1:	44 8b 85 9c d8 ff ff 	mov    -0x2764(%rbp),%r8d
  401fd8:	0f b6 05 b5 bb 21 00 	movzbl 0x21bbb5(%rip),%eax        # 61db94 <smallMode>
  401fdf:	0f b6 c8             	movzbl %al,%ecx
  401fe2:	8b 15 84 b7 21 00    	mov    0x21b784(%rip),%edx        # 61d76c <verbosity>
  401fe8:	48 8d bd a0 d8 ff ff 	lea    -0x2760(%rbp),%rdi
  401fef:	48 8b b5 88 d8 ff ff 	mov    -0x2778(%rbp),%rsi
  401ff6:	48 8d 45 bc          	lea    -0x44(%rbp),%rax
  401ffa:	45 89 c1             	mov    %r8d,%r9d
  401ffd:	49 89 f8             	mov    %rdi,%r8
  402000:	48 89 c7             	mov    %rax,%rdi
  402003:	e8 9a 64 00 00       	callq  4084a2 <BZ2_bzReadOpen>
  402008:	48 89 45 f0          	mov    %rax,-0x10(%rbp)
  40200c:	48 83 7d f0 00       	cmpq   $0x0,-0x10(%rbp)
  402011:	0f 84 8a 01 00 00    	je     4021a1 <testStream+0x215>
  402017:	8b 45 bc             	mov    -0x44(%rbp),%eax
  40201a:	85 c0                	test   %eax,%eax
  40201c:	0f 85 7f 01 00 00    	jne    4021a1 <testStream+0x215>
  402022:	83 45 fc 01          	addl   $0x1,-0x4(%rbp)
  402026:	eb 2b                	jmp    402053 <testStream+0xc7>
  402028:	48 8d 95 30 ec ff ff 	lea    -0x13d0(%rbp),%rdx
  40202f:	48 8b 75 f0          	mov    -0x10(%rbp),%rsi
  402033:	48 8d 45 bc          	lea    -0x44(%rbp),%rax
  402037:	b9 88 13 00 00       	mov    $0x1388,%ecx
  40203c:	48 89 c7             	mov    %rax,%rdi
  40203f:	e8 d7 67 00 00       	callq  40881b <BZ2_bzRead>
  402044:	89 45 ec             	mov    %eax,-0x14(%rbp)
  402047:	8b 45 bc             	mov    -0x44(%rbp),%eax
  40204a:	83 f8 fb             	cmp    $0xfffffffb,%eax
  40204d:	0f 84 4a 01 00 00    	je     40219d <testStream+0x211>
  402053:	8b 45 bc             	mov    -0x44(%rbp),%eax
  402056:	85 c0                	test   %eax,%eax
  402058:	74 ce                	je     402028 <testStream+0x9c>
  40205a:	8b 45 bc             	mov    -0x44(%rbp),%eax
  40205d:	83 f8 04             	cmp    $0x4,%eax
  402060:	0f 85 3a 01 00 00    	jne    4021a0 <testStream+0x214>
  402066:	48 8d 8d 9c d8 ff ff 	lea    -0x2764(%rbp),%rcx
  40206d:	48 8d 95 90 d8 ff ff 	lea    -0x2770(%rbp),%rdx
  402074:	48 8b 75 f0          	mov    -0x10(%rbp),%rsi
  402078:	48 8d 45 bc          	lea    -0x44(%rbp),%rax
  40207c:	48 89 c7             	mov    %rax,%rdi
  40207f:	e8 ec 6a 00 00       	callq  408b70 <BZ2_bzReadGetUnused>
  402084:	8b 45 bc             	mov    -0x44(%rbp),%eax
  402087:	85 c0                	test   %eax,%eax
  402089:	74 0a                	je     402095 <testStream+0x109>
  40208b:	bf 68 87 41 00       	mov    $0x418768,%edi
  402090:	e8 c2 04 00 00       	callq  402557 <panic>
  402095:	48 8b 85 90 d8 ff ff 	mov    -0x2770(%rbp),%rax
  40209c:	48 89 45 e0          	mov    %rax,-0x20(%rbp)
  4020a0:	48 8d 85 a0 d8 ff ff 	lea    -0x2760(%rbp),%rax
  4020a7:	48 89 45 c0          	mov    %rax,-0x40(%rbp)
  4020ab:	48 8d 85 9c d8 ff ff 	lea    -0x2764(%rbp),%rax
  4020b2:	48 89 45 c8          	mov    %rax,-0x38(%rbp)
  4020b6:	48 8b 45 e0          	mov    -0x20(%rbp),%rax
  4020ba:	48 89 45 d0          	mov    %rax,-0x30(%rbp)
  4020be:	48 8d 45 c0          	lea    -0x40(%rbp),%rax
  4020c2:	ba 00 00 00 00       	mov    $0x0,%edx
  4020c7:	48 89 c6             	mov    %rax,%rsi
  4020ca:	bf d5 4c 40 00       	mov    $0x404cd5,%edi
  4020cf:	e8 0c f0 ff ff       	callq  4010e0 <GOMP_parallel_start@plt>
  4020d4:	48 8d 45 c0          	lea    -0x40(%rbp),%rax
  4020d8:	48 89 c7             	mov    %rax,%rdi
  4020db:	e8 f5 2b 00 00       	callq  404cd5 <testStream._omp_fn.0>
  4020e0:	e8 4b f0 ff ff       	callq  401130 <GOMP_parallel_end@plt>
  4020e5:	48 8b 45 d0          	mov    -0x30(%rbp),%rax
  4020e9:	48 89 45 e0          	mov    %rax,-0x20(%rbp)
  4020ed:	48 8b 55 f0          	mov    -0x10(%rbp),%rdx
  4020f1:	48 8d 45 bc          	lea    -0x44(%rbp),%rax
  4020f5:	48 89 d6             	mov    %rdx,%rsi
  4020f8:	48 89 c7             	mov    %rax,%rdi
  4020fb:	e8 42 66 00 00       	callq  408742 <BZ2_bzReadClose>
  402100:	8b 45 bc             	mov    -0x44(%rbp),%eax
  402103:	85 c0                	test   %eax,%eax
  402105:	74 0a                	je     402111 <testStream+0x185>
  402107:	bf 68 87 41 00       	mov    $0x418768,%edi
  40210c:	e8 46 04 00 00       	callq  402557 <panic>
  402111:	8b 85 9c d8 ff ff    	mov    -0x2764(%rbp),%eax
  402117:	85 c0                	test   %eax,%eax
  402119:	0f 85 b1 fe ff ff    	jne    401fd0 <testStream+0x44>
  40211f:	48 8b 85 88 d8 ff ff 	mov    -0x2778(%rbp),%rax
  402126:	48 89 c7             	mov    %rax,%rdi
  402129:	e8 60 f5 ff ff       	callq  40168e <myfeof>
  40212e:	84 c0                	test   %al,%al
  402130:	0f 84 9a fe ff ff    	je     401fd0 <testStream+0x44>
  402136:	90                   	nop
  402137:	48 8b 85 88 d8 ff ff 	mov    -0x2778(%rbp),%rax
  40213e:	48 89 c7             	mov    %rax,%rdi
  402141:	e8 aa ef ff ff       	callq  4010f0 <ferror@plt>
  402146:	85 c0                	test   %eax,%eax
  402148:	0f 85 b8 00 00 00    	jne    402206 <testStream+0x27a>
  40214e:	48 8b 85 88 d8 ff ff 	mov    -0x2778(%rbp),%rax
  402155:	48 89 c7             	mov    %rax,%rdi
  402158:	e8 c3 ef ff ff       	callq  401120 <fclose@plt>
  40215d:	89 45 dc             	mov    %eax,-0x24(%rbp)
  402160:	83 7d dc ff          	cmpl   $0xffffffff,-0x24(%rbp)
  402164:	0f 84 9f 00 00 00    	je     402209 <testStream+0x27d>
  40216a:	8b 05 fc b5 21 00    	mov    0x21b5fc(%rip),%eax        # 61d76c <verbosity>
  402170:	83 f8 01             	cmp    $0x1,%eax
  402173:	7e 1e                	jle    402193 <testStream+0x207>
  402175:	48 8b 05 34 b1 21 00 	mov    0x21b134(%rip),%rax        # 61d2b0 <stderr@@GLIBC_2.2.5>
  40217c:	48 89 c1             	mov    %rax,%rcx
  40217f:	ba 05 00 00 00       	mov    $0x5,%edx
  402184:	be 01 00 00 00       	mov    $0x1,%esi
  402189:	bf d6 86 41 00       	mov    $0x4186d6,%edi
  40218e:	e8 3d f1 ff ff       	callq  4012d0 <fwrite@plt>
  402193:	b8 01 00 00 00       	mov    $0x1,%eax
  402198:	e9 4b 01 00 00       	jmpq   4022e8 <testStream+0x35c>
  40219d:	90                   	nop
  40219e:	eb 01                	jmp    4021a1 <testStream+0x215>
  4021a0:	90                   	nop
  4021a1:	48 8b 55 f0          	mov    -0x10(%rbp),%rdx
  4021a5:	48 8d 45 b8          	lea    -0x48(%rbp),%rax
  4021a9:	48 89 d6             	mov    %rdx,%rsi
  4021ac:	48 89 c7             	mov    %rax,%rdi
  4021af:	e8 8e 65 00 00       	callq  408742 <BZ2_bzReadClose>
  4021b4:	8b 05 b2 b5 21 00    	mov    0x21b5b2(%rip),%eax        # 61d76c <verbosity>
  4021ba:	85 c0                	test   %eax,%eax
  4021bc:	75 25                	jne    4021e3 <testStream+0x257>
  4021be:	48 8b 15 33 c2 21 00 	mov    0x21c233(%rip),%rdx        # 61e3f8 <progName>
  4021c5:	48 8b 05 e4 b0 21 00 	mov    0x21b0e4(%rip),%rax        # 61d2b0 <stderr@@GLIBC_2.2.5>
  4021cc:	b9 e0 df 61 00       	mov    $0x61dfe0,%ecx
  4021d1:	be 7d 87 41 00       	mov    $0x41877d,%esi
  4021d6:	48 89 c7             	mov    %rax,%rdi
  4021d9:	b8 00 00 00 00       	mov    $0x0,%eax
  4021de:	e8 0d f0 ff ff       	callq  4011f0 <fprintf@plt>
  4021e3:	8b 45 bc             	mov    -0x44(%rbp),%eax
  4021e6:	83 c0 09             	add    $0x9,%eax
  4021e9:	83 f8 06             	cmp    $0x6,%eax
  4021ec:	0f 87 ec 00 00 00    	ja     4022de <testStream+0x352>
  4021f2:	89 c0                	mov    %eax,%eax
  4021f4:	48 8b 04 c5 38 88 41 	mov    0x418838(,%rax,8),%rax
  4021fb:	00 
  4021fc:	ff e0                	jmpq   *%rax
  4021fe:	e8 48 05 00 00       	callq  40274b <configError>
  402203:	90                   	nop
  402204:	eb 04                	jmp    40220a <testStream+0x27e>
  402206:	90                   	nop
  402207:	eb 01                	jmp    40220a <testStream+0x27e>
  402209:	90                   	nop
  40220a:	e8 11 04 00 00       	callq  402620 <ioError>
  40220f:	48 8b 05 9a b0 21 00 	mov    0x21b09a(%rip),%rax        # 61d2b0 <stderr@@GLIBC_2.2.5>
  402216:	48 89 c1             	mov    %rax,%rcx
  402219:	ba 23 00 00 00       	mov    $0x23,%edx
  40221e:	be 01 00 00 00       	mov    $0x1,%esi
  402223:	bf 88 87 41 00       	mov    $0x418788,%edi
  402228:	e8 a3 f0 ff ff       	callq  4012d0 <fwrite@plt>
  40222d:	b8 00 00 00 00       	mov    $0x0,%eax
  402232:	e9 b1 00 00 00       	jmpq   4022e8 <testStream+0x35c>
  402237:	e8 dc 04 00 00       	callq  402718 <outOfMemory>
  40223c:	48 8b 05 6d b0 21 00 	mov    0x21b06d(%rip),%rax        # 61d2b0 <stderr@@GLIBC_2.2.5>
  402243:	48 89 c1             	mov    %rax,%rcx
  402246:	ba 17 00 00 00       	mov    $0x17,%edx
  40224b:	be 01 00 00 00       	mov    $0x1,%esi
  402250:	bf ac 87 41 00       	mov    $0x4187ac,%edi
  402255:	e8 76 f0 ff ff       	callq  4012d0 <fwrite@plt>
  40225a:	b8 00 00 00 00       	mov    $0x0,%eax
  40225f:	e9 84 00 00 00       	jmpq   4022e8 <testStream+0x35c>
  402264:	48 8b 05 3d b0 21 00 	mov    0x21b03d(%rip),%rax        # 61d2a8 <stdin@@GLIBC_2.2.5>
  40226b:	48 39 85 88 d8 ff ff 	cmp    %rax,-0x2778(%rbp)
  402272:	74 0f                	je     402283 <testStream+0x2f7>
  402274:	48 8b 85 88 d8 ff ff 	mov    -0x2778(%rbp),%rax
  40227b:	48 89 c7             	mov    %rax,%rdi
  40227e:	e8 9d ee ff ff       	callq  401120 <fclose@plt>
  402283:	83 7d fc 01          	cmpl   $0x1,-0x4(%rbp)
  402287:	75 25                	jne    4022ae <testStream+0x322>
  402289:	48 8b 05 20 b0 21 00 	mov    0x21b020(%rip),%rax        # 61d2b0 <stderr@@GLIBC_2.2.5>
  402290:	48 89 c1             	mov    %rax,%rcx
  402293:	ba 2d 00 00 00       	mov    $0x2d,%edx
  402298:	be 01 00 00 00       	mov    $0x1,%esi
  40229d:	bf c8 87 41 00       	mov    $0x4187c8,%edi
  4022a2:	e8 29 f0 ff ff       	callq  4012d0 <fwrite@plt>
  4022a7:	b8 00 00 00 00       	mov    $0x0,%eax
  4022ac:	eb 3a                	jmp    4022e8 <testStream+0x35c>
  4022ae:	0f b6 05 03 b9 21 00 	movzbl 0x21b903(%rip),%eax        # 61dbb8 <noisy>
  4022b5:	84 c0                	test   %al,%al
  4022b7:	74 1e                	je     4022d7 <testStream+0x34b>
  4022b9:	48 8b 05 f0 af 21 00 	mov    0x21aff0(%rip),%rax        # 61d2b0 <stderr@@GLIBC_2.2.5>
  4022c0:	48 89 c1             	mov    %rax,%rcx
  4022c3:	ba 23 00 00 00       	mov    $0x23,%edx
  4022c8:	be 01 00 00 00       	mov    $0x1,%esi
  4022cd:	bf f8 87 41 00       	mov    $0x4187f8,%edi
  4022d2:	e8 f9 ef ff ff       	callq  4012d0 <fwrite@plt>
  4022d7:	b8 01 00 00 00       	mov    $0x1,%eax
  4022dc:	eb 0a                	jmp    4022e8 <testStream+0x35c>
  4022de:	bf 1c 88 41 00       	mov    $0x41881c,%edi
  4022e3:	e8 6f 02 00 00       	callq  402557 <panic>
  4022e8:	c9                   	leaveq 
  4022e9:	c3                   	retq   

00000000004022ea <setExit>:
  4022ea:	55                   	push   %rbp
  4022eb:	48 89 e5             	mov    %rsp,%rbp
  4022ee:	89 7d fc             	mov    %edi,-0x4(%rbp)
  4022f1:	8b 05 bd b8 21 00    	mov    0x21b8bd(%rip),%eax        # 61dbb4 <exitValue>
  4022f7:	39 45 fc             	cmp    %eax,-0x4(%rbp)
  4022fa:	7e 09                	jle    402305 <setExit+0x1b>
  4022fc:	8b 45 fc             	mov    -0x4(%rbp),%eax
  4022ff:	89 05 af b8 21 00    	mov    %eax,0x21b8af(%rip)        # 61dbb4 <exitValue>
  402305:	5d                   	pop    %rbp
  402306:	c3                   	retq   

0000000000402307 <cadvise>:
  402307:	55                   	push   %rbp
  402308:	48 89 e5             	mov    %rsp,%rbp
  40230b:	0f b6 05 a6 b8 21 00 	movzbl 0x21b8a6(%rip),%eax        # 61dbb8 <noisy>
  402312:	84 c0                	test   %al,%al
  402314:	74 1e                	je     402334 <cadvise+0x2d>
  402316:	48 8b 05 93 af 21 00 	mov    0x21af93(%rip),%rax        # 61d2b0 <stderr@@GLIBC_2.2.5>
  40231d:	48 89 c1             	mov    %rax,%rcx
  402320:	ba f0 00 00 00       	mov    $0xf0,%edx
  402325:	be 01 00 00 00       	mov    $0x1,%esi
  40232a:	bf 70 88 41 00       	mov    $0x418870,%edi
  40232f:	e8 9c ef ff ff       	callq  4012d0 <fwrite@plt>
  402334:	5d                   	pop    %rbp
  402335:	c3                   	retq   

0000000000402336 <showFileNames>:
  402336:	55                   	push   %rbp
  402337:	48 89 e5             	mov    %rsp,%rbp
  40233a:	0f b6 05 77 b8 21 00 	movzbl 0x21b877(%rip),%eax        # 61dbb8 <noisy>
  402341:	84 c0                	test   %al,%al
  402343:	74 23                	je     402368 <showFileNames+0x32>
  402345:	48 8b 05 64 af 21 00 	mov    0x21af64(%rip),%rax        # 61d2b0 <stderr@@GLIBC_2.2.5>
  40234c:	b9 c0 db 61 00       	mov    $0x61dbc0,%ecx
  402351:	ba e0 df 61 00       	mov    $0x61dfe0,%edx
  402356:	be 68 89 41 00       	mov    $0x418968,%esi
  40235b:	48 89 c7             	mov    %rax,%rdi
  40235e:	b8 00 00 00 00       	mov    $0x0,%eax
  402363:	e8 88 ee ff ff       	callq  4011f0 <fprintf@plt>
  402368:	5d                   	pop    %rbp
  402369:	c3                   	retq   

000000000040236a <cleanUpAndFail>:
  40236a:	55                   	push   %rbp
  40236b:	48 89 e5             	mov    %rsp,%rbp
  40236e:	48 81 ec b0 00 00 00 	sub    $0xb0,%rsp
  402375:	89 bd 5c ff ff ff    	mov    %edi,-0xa4(%rbp)
  40237b:	8b 05 27 b8 21 00    	mov    0x21b827(%rip),%eax        # 61dba8 <srcMode>
  402381:	83 f8 03             	cmp    $0x3,%eax
  402384:	0f 85 4b 01 00 00    	jne    4024d5 <cleanUpAndFail+0x16b>
  40238a:	8b 05 60 c0 21 00    	mov    0x21c060(%rip),%eax        # 61e3f0 <opMode>
  402390:	83 f8 03             	cmp    $0x3,%eax
  402393:	0f 84 3c 01 00 00    	je     4024d5 <cleanUpAndFail+0x16b>
  402399:	0f b6 05 4c c0 21 00 	movzbl 0x21c04c(%rip),%eax        # 61e3ec <deleteOutputOnInterrupt>
  4023a0:	84 c0                	test   %al,%al
  4023a2:	0f 84 2d 01 00 00    	je     4024d5 <cleanUpAndFail+0x16b>
  4023a8:	48 8d 85 60 ff ff ff 	lea    -0xa0(%rbp),%rax
  4023af:	48 89 c6             	mov    %rax,%rsi
  4023b2:	bf e0 df 61 00       	mov    $0x61dfe0,%edi
  4023b7:	e8 54 62 01 00       	callq  418610 <__stat>
  4023bc:	89 45 fc             	mov    %eax,-0x4(%rbp)
  4023bf:	83 7d fc 00          	cmpl   $0x0,-0x4(%rbp)
  4023c3:	0f 85 87 00 00 00    	jne    402450 <cleanUpAndFail+0xe6>
  4023c9:	0f b6 05 e8 b7 21 00 	movzbl 0x21b7e8(%rip),%eax        # 61dbb8 <noisy>
  4023d0:	84 c0                	test   %al,%al
  4023d2:	74 25                	je     4023f9 <cleanUpAndFail+0x8f>
  4023d4:	48 8b 15 1d c0 21 00 	mov    0x21c01d(%rip),%rdx        # 61e3f8 <progName>
  4023db:	48 8b 05 ce ae 21 00 	mov    0x21aece(%rip),%rax        # 61d2b0 <stderr@@GLIBC_2.2.5>
  4023e2:	b9 c0 db 61 00       	mov    $0x61dbc0,%ecx
  4023e7:	be 90 89 41 00       	mov    $0x418990,%esi
  4023ec:	48 89 c7             	mov    %rax,%rdi
  4023ef:	b8 00 00 00 00       	mov    $0x0,%eax
  4023f4:	e8 f7 ed ff ff       	callq  4011f0 <fprintf@plt>
  4023f9:	48 8b 05 98 b7 21 00 	mov    0x21b798(%rip),%rax        # 61db98 <outputHandleJustInCase>
  402400:	48 85 c0             	test   %rax,%rax
  402403:	74 0f                	je     402414 <cleanUpAndFail+0xaa>
  402405:	48 8b 05 8c b7 21 00 	mov    0x21b78c(%rip),%rax        # 61db98 <outputHandleJustInCase>
  40240c:	48 89 c7             	mov    %rax,%rdi
  40240f:	e8 0c ed ff ff       	callq  401120 <fclose@plt>
  402414:	bf c0 db 61 00       	mov    $0x61dbc0,%edi
  402419:	e8 92 ec ff ff       	callq  4010b0 <remove@plt>
  40241e:	89 45 fc             	mov    %eax,-0x4(%rbp)
  402421:	83 7d fc 00          	cmpl   $0x0,-0x4(%rbp)
  402425:	0f 84 aa 00 00 00    	je     4024d5 <cleanUpAndFail+0x16b>
  40242b:	48 8b 15 c6 bf 21 00 	mov    0x21bfc6(%rip),%rdx        # 61e3f8 <progName>
  402432:	48 8b 05 77 ae 21 00 	mov    0x21ae77(%rip),%rax        # 61d2b0 <stderr@@GLIBC_2.2.5>
  402439:	be c0 89 41 00       	mov    $0x4189c0,%esi
  40243e:	48 89 c7             	mov    %rax,%rdi
  402441:	b8 00 00 00 00       	mov    $0x0,%eax
  402446:	e8 a5 ed ff ff       	callq  4011f0 <fprintf@plt>
  40244b:	e9 85 00 00 00       	jmpq   4024d5 <cleanUpAndFail+0x16b>
  402450:	48 8b 15 a1 bf 21 00 	mov    0x21bfa1(%rip),%rdx        # 61e3f8 <progName>
  402457:	48 8b 05 52 ae 21 00 	mov    0x21ae52(%rip),%rax        # 61d2b0 <stderr@@GLIBC_2.2.5>
  40245e:	be 00 8a 41 00       	mov    $0x418a00,%esi
  402463:	48 89 c7             	mov    %rax,%rdi
  402466:	b8 00 00 00 00       	mov    $0x0,%eax
  40246b:	e8 80 ed ff ff       	callq  4011f0 <fprintf@plt>
  402470:	48 8b 15 81 bf 21 00 	mov    0x21bf81(%rip),%rdx        # 61e3f8 <progName>
  402477:	48 8b 05 32 ae 21 00 	mov    0x21ae32(%rip),%rax        # 61d2b0 <stderr@@GLIBC_2.2.5>
  40247e:	be 38 8a 41 00       	mov    $0x418a38,%esi
  402483:	48 89 c7             	mov    %rax,%rdi
  402486:	b8 00 00 00 00       	mov    $0x0,%eax
  40248b:	e8 60 ed ff ff       	callq  4011f0 <fprintf@plt>
  402490:	48 8b 15 61 bf 21 00 	mov    0x21bf61(%rip),%rdx        # 61e3f8 <progName>
  402497:	48 8b 05 12 ae 21 00 	mov    0x21ae12(%rip),%rax        # 61d2b0 <stderr@@GLIBC_2.2.5>
  40249e:	b9 c0 db 61 00       	mov    $0x61dbc0,%ecx
  4024a3:	be 70 8a 41 00       	mov    $0x418a70,%esi
  4024a8:	48 89 c7             	mov    %rax,%rdi
  4024ab:	b8 00 00 00 00       	mov    $0x0,%eax
  4024b0:	e8 3b ed ff ff       	callq  4011f0 <fprintf@plt>
  4024b5:	48 8b 15 3c bf 21 00 	mov    0x21bf3c(%rip),%rdx        # 61e3f8 <progName>
  4024bc:	48 8b 05 ed ad 21 00 	mov    0x21aded(%rip),%rax        # 61d2b0 <stderr@@GLIBC_2.2.5>
  4024c3:	be 90 8a 41 00       	mov    $0x418a90,%esi
  4024c8:	48 89 c7             	mov    %rax,%rdi
  4024cb:	b8 00 00 00 00       	mov    $0x0,%eax
  4024d0:	e8 1b ed ff ff       	callq  4011f0 <fprintf@plt>
  4024d5:	0f b6 05 dc b6 21 00 	movzbl 0x21b6dc(%rip),%eax        # 61dbb8 <noisy>
  4024dc:	84 c0                	test   %al,%al
  4024de:	74 5d                	je     40253d <cleanUpAndFail+0x1d3>
  4024e0:	8b 05 ba b6 21 00    	mov    0x21b6ba(%rip),%eax        # 61dba0 <numFileNames>
  4024e6:	85 c0                	test   %eax,%eax
  4024e8:	7e 53                	jle    40253d <cleanUpAndFail+0x1d3>
  4024ea:	8b 15 a0 b6 21 00    	mov    0x21b6a0(%rip),%edx        # 61db90 <numFilesProcessed>
  4024f0:	8b 05 aa b6 21 00    	mov    0x21b6aa(%rip),%eax        # 61dba0 <numFileNames>
  4024f6:	39 c2                	cmp    %eax,%edx
  4024f8:	7d 43                	jge    40253d <cleanUpAndFail+0x1d3>
  4024fa:	8b 15 a0 b6 21 00    	mov    0x21b6a0(%rip),%edx        # 61dba0 <numFileNames>
  402500:	8b 05 8a b6 21 00    	mov    0x21b68a(%rip),%eax        # 61db90 <numFilesProcessed>
  402506:	89 d7                	mov    %edx,%edi
  402508:	29 c7                	sub    %eax,%edi
  40250a:	8b 35 90 b6 21 00    	mov    0x21b690(%rip),%esi        # 61dba0 <numFileNames>
  402510:	48 8b 0d e1 be 21 00 	mov    0x21bee1(%rip),%rcx        # 61e3f8 <progName>
  402517:	48 8b 15 da be 21 00 	mov    0x21beda(%rip),%rdx        # 61e3f8 <progName>
  40251e:	48 8b 05 8b ad 21 00 	mov    0x21ad8b(%rip),%rax        # 61d2b0 <stderr@@GLIBC_2.2.5>
  402525:	41 89 f9             	mov    %edi,%r9d
  402528:	41 89 f0             	mov    %esi,%r8d
  40252b:	be d0 8a 41 00       	mov    $0x418ad0,%esi
  402530:	48 89 c7             	mov    %rax,%rdi
  402533:	b8 00 00 00 00       	mov    $0x0,%eax
  402538:	e8 b3 ec ff ff       	callq  4011f0 <fprintf@plt>
  40253d:	8b 85 5c ff ff ff    	mov    -0xa4(%rbp),%eax
  402543:	89 c7                	mov    %eax,%edi
  402545:	e8 a0 fd ff ff       	callq  4022ea <setExit>
  40254a:	8b 05 64 b6 21 00    	mov    0x21b664(%rip),%eax        # 61dbb4 <exitValue>
  402550:	89 c7                	mov    %eax,%edi
  402552:	e8 69 ed ff ff       	callq  4012c0 <exit@plt>

0000000000402557 <panic>:
  402557:	55                   	push   %rbp
  402558:	48 89 e5             	mov    %rsp,%rbp
  40255b:	48 83 ec 10          	sub    $0x10,%rsp
  40255f:	48 89 7d f8          	mov    %rdi,-0x8(%rbp)
  402563:	48 8b 15 8e be 21 00 	mov    0x21be8e(%rip),%rdx        # 61e3f8 <progName>
  40256a:	48 8b 05 3f ad 21 00 	mov    0x21ad3f(%rip),%rax        # 61d2b0 <stderr@@GLIBC_2.2.5>
  402571:	48 8b 4d f8          	mov    -0x8(%rbp),%rcx
  402575:	be 40 8b 41 00       	mov    $0x418b40,%esi
  40257a:	48 89 c7             	mov    %rax,%rdi
  40257d:	b8 00 00 00 00       	mov    $0x0,%eax
  402582:	e8 69 ec ff ff       	callq  4011f0 <fprintf@plt>
  402587:	e8 aa fd ff ff       	callq  402336 <showFileNames>
  40258c:	bf 03 00 00 00       	mov    $0x3,%edi
  402591:	e8 d4 fd ff ff       	callq  40236a <cleanUpAndFail>

0000000000402596 <crcError>:
  402596:	55                   	push   %rbp
  402597:	48 89 e5             	mov    %rsp,%rbp
  40259a:	48 8b 15 57 be 21 00 	mov    0x21be57(%rip),%rdx        # 61e3f8 <progName>
  4025a1:	48 8b 05 08 ad 21 00 	mov    0x21ad08(%rip),%rax        # 61d2b0 <stderr@@GLIBC_2.2.5>
  4025a8:	be b0 8b 41 00       	mov    $0x418bb0,%esi
  4025ad:	48 89 c7             	mov    %rax,%rdi
  4025b0:	b8 00 00 00 00       	mov    $0x0,%eax
  4025b5:	e8 36 ec ff ff       	callq  4011f0 <fprintf@plt>
  4025ba:	e8 77 fd ff ff       	callq  402336 <showFileNames>
  4025bf:	e8 43 fd ff ff       	callq  402307 <cadvise>
  4025c4:	bf 02 00 00 00       	mov    $0x2,%edi
  4025c9:	e8 9c fd ff ff       	callq  40236a <cleanUpAndFail>

00000000004025ce <compressedStreamEOF>:
  4025ce:	55                   	push   %rbp
  4025cf:	48 89 e5             	mov    %rsp,%rbp
  4025d2:	0f b6 05 df b5 21 00 	movzbl 0x21b5df(%rip),%eax        # 61dbb8 <noisy>
  4025d9:	84 c0                	test   %al,%al
  4025db:	74 39                	je     402616 <compressedStreamEOF+0x48>
  4025dd:	48 8b 15 14 be 21 00 	mov    0x21be14(%rip),%rdx        # 61e3f8 <progName>
  4025e4:	48 8b 05 c5 ac 21 00 	mov    0x21acc5(%rip),%rax        # 61d2b0 <stderr@@GLIBC_2.2.5>
  4025eb:	be e0 8b 41 00       	mov    $0x418be0,%esi
  4025f0:	48 89 c7             	mov    %rax,%rdi
  4025f3:	b8 00 00 00 00       	mov    $0x0,%eax
  4025f8:	e8 f3 eb ff ff       	callq  4011f0 <fprintf@plt>
  4025fd:	48 8b 05 f4 bd 21 00 	mov    0x21bdf4(%rip),%rax        # 61e3f8 <progName>
  402604:	48 89 c7             	mov    %rax,%rdi
  402607:	e8 94 ec ff ff       	callq  4012a0 <perror@plt>
  40260c:	e8 25 fd ff ff       	callq  402336 <showFileNames>
  402611:	e8 f1 fc ff ff       	callq  402307 <cadvise>
  402616:	bf 02 00 00 00       	mov    $0x2,%edi
  40261b:	e8 4a fd ff ff       	callq  40236a <cleanUpAndFail>

0000000000402620 <ioError>:
  402620:	55                   	push   %rbp
  402621:	48 89 e5             	mov    %rsp,%rbp
  402624:	48 8b 15 cd bd 21 00 	mov    0x21bdcd(%rip),%rdx        # 61e3f8 <progName>
  40262b:	48 8b 05 7e ac 21 00 	mov    0x21ac7e(%rip),%rax        # 61d2b0 <stderr@@GLIBC_2.2.5>
  402632:	be 40 8c 41 00       	mov    $0x418c40,%esi
  402637:	48 89 c7             	mov    %rax,%rdi
  40263a:	b8 00 00 00 00       	mov    $0x0,%eax
  40263f:	e8 ac eb ff ff       	callq  4011f0 <fprintf@plt>
  402644:	48 8b 05 ad bd 21 00 	mov    0x21bdad(%rip),%rax        # 61e3f8 <progName>
  40264b:	48 89 c7             	mov    %rax,%rdi
  40264e:	e8 4d ec ff ff       	callq  4012a0 <perror@plt>
  402653:	e8 de fc ff ff       	callq  402336 <showFileNames>
  402658:	bf 01 00 00 00       	mov    $0x1,%edi
  40265d:	e8 08 fd ff ff       	callq  40236a <cleanUpAndFail>

0000000000402662 <mySignalCatcher>:
  402662:	55                   	push   %rbp
  402663:	48 89 e5             	mov    %rsp,%rbp
  402666:	48 83 ec 10          	sub    $0x10,%rsp
  40266a:	89 7d fc             	mov    %edi,-0x4(%rbp)
  40266d:	48 8b 15 84 bd 21 00 	mov    0x21bd84(%rip),%rdx        # 61e3f8 <progName>
  402674:	48 8b 05 35 ac 21 00 	mov    0x21ac35(%rip),%rax        # 61d2b0 <stderr@@GLIBC_2.2.5>
  40267b:	be 88 8c 41 00       	mov    $0x418c88,%esi
  402680:	48 89 c7             	mov    %rax,%rdi
  402683:	b8 00 00 00 00       	mov    $0x0,%eax
  402688:	e8 63 eb ff ff       	callq  4011f0 <fprintf@plt>
  40268d:	bf 01 00 00 00       	mov    $0x1,%edi
  402692:	e8 d3 fc ff ff       	callq  40236a <cleanUpAndFail>

0000000000402697 <mySIGSEGVorSIGBUScatcher>:
  402697:	55                   	push   %rbp
  402698:	48 89 e5             	mov    %rsp,%rbp
  40269b:	48 83 ec 10          	sub    $0x10,%rsp
  40269f:	89 7d fc             	mov    %edi,-0x4(%rbp)
  4026a2:	8b 05 48 bd 21 00    	mov    0x21bd48(%rip),%eax        # 61e3f0 <opMode>
  4026a8:	83 f8 01             	cmp    $0x1,%eax
  4026ab:	75 22                	jne    4026cf <mySIGSEGVorSIGBUScatcher+0x38>
  4026ad:	48 8b 15 44 bd 21 00 	mov    0x21bd44(%rip),%rdx        # 61e3f8 <progName>
  4026b4:	48 8b 05 f5 ab 21 00 	mov    0x21abf5(%rip),%rax        # 61d2b0 <stderr@@GLIBC_2.2.5>
  4026bb:	be b8 8c 41 00       	mov    $0x418cb8,%esi
  4026c0:	48 89 c7             	mov    %rax,%rdi
  4026c3:	b8 00 00 00 00       	mov    $0x0,%eax
  4026c8:	e8 23 eb ff ff       	callq  4011f0 <fprintf@plt>
  4026cd:	eb 20                	jmp    4026ef <mySIGSEGVorSIGBUScatcher+0x58>
  4026cf:	48 8b 15 22 bd 21 00 	mov    0x21bd22(%rip),%rdx        # 61e3f8 <progName>
  4026d6:	48 8b 05 d3 ab 21 00 	mov    0x21abd3(%rip),%rax        # 61d2b0 <stderr@@GLIBC_2.2.5>
  4026dd:	be 20 90 41 00       	mov    $0x419020,%esi
  4026e2:	48 89 c7             	mov    %rax,%rdi
  4026e5:	b8 00 00 00 00       	mov    $0x0,%eax
  4026ea:	e8 01 eb ff ff       	callq  4011f0 <fprintf@plt>
  4026ef:	e8 42 fc ff ff       	callq  402336 <showFileNames>
  4026f4:	8b 05 f6 bc 21 00    	mov    0x21bcf6(%rip),%eax        # 61e3f0 <opMode>
  4026fa:	83 f8 01             	cmp    $0x1,%eax
  4026fd:	75 0a                	jne    402709 <mySIGSEGVorSIGBUScatcher+0x72>
  4026ff:	bf 03 00 00 00       	mov    $0x3,%edi
  402704:	e8 61 fc ff ff       	callq  40236a <cleanUpAndFail>
  402709:	e8 f9 fb ff ff       	callq  402307 <cadvise>
  40270e:	bf 02 00 00 00       	mov    $0x2,%edi
  402713:	e8 52 fc ff ff       	callq  40236a <cleanUpAndFail>

0000000000402718 <outOfMemory>:
  402718:	55                   	push   %rbp
  402719:	48 89 e5             	mov    %rsp,%rbp
  40271c:	48 8b 15 d5 bc 21 00 	mov    0x21bcd5(%rip),%rdx        # 61e3f8 <progName>
  402723:	48 8b 05 86 ab 21 00 	mov    0x21ab86(%rip),%rax        # 61d2b0 <stderr@@GLIBC_2.2.5>
  40272a:	be 08 94 41 00       	mov    $0x419408,%esi
  40272f:	48 89 c7             	mov    %rax,%rdi
  402732:	b8 00 00 00 00       	mov    $0x0,%eax
  402737:	e8 b4 ea ff ff       	callq  4011f0 <fprintf@plt>
  40273c:	e8 f5 fb ff ff       	callq  402336 <showFileNames>
  402741:	bf 01 00 00 00       	mov    $0x1,%edi
  402746:	e8 1f fc ff ff       	callq  40236a <cleanUpAndFail>

000000000040274b <configError>:
  40274b:	55                   	push   %rbp
  40274c:	48 89 e5             	mov    %rsp,%rbp
  40274f:	48 8b 05 5a ab 21 00 	mov    0x21ab5a(%rip),%rax        # 61d2b0 <stderr@@GLIBC_2.2.5>
  402756:	48 89 c1             	mov    %rax,%rcx
  402759:	ba eb 00 00 00       	mov    $0xeb,%edx
  40275e:	be 01 00 00 00       	mov    $0x1,%esi
  402763:	bf 30 94 41 00       	mov    $0x419430,%edi
  402768:	e8 63 eb ff ff       	callq  4012d0 <fwrite@plt>
  40276d:	bf 03 00 00 00       	mov    $0x3,%edi
  402772:	e8 73 fb ff ff       	callq  4022ea <setExit>
  402777:	8b 05 37 b4 21 00    	mov    0x21b437(%rip),%eax        # 61dbb4 <exitValue>
  40277d:	89 c7                	mov    %eax,%edi
  40277f:	e8 3c eb ff ff       	callq  4012c0 <exit@plt>

0000000000402784 <pad>:
  402784:	55                   	push   %rbp
  402785:	48 89 e5             	mov    %rsp,%rbp
  402788:	53                   	push   %rbx
  402789:	48 83 ec 28          	sub    $0x28,%rsp
  40278d:	48 89 7d d8          	mov    %rdi,-0x28(%rbp)
  402791:	48 8b 45 d8          	mov    -0x28(%rbp),%rax
  402795:	48 89 c7             	mov    %rax,%rdi
  402798:	e8 b3 e9 ff ff       	callq  401150 <strlen@plt>
  40279d:	89 c2                	mov    %eax,%edx
  40279f:	8b 05 ff b3 21 00    	mov    0x21b3ff(%rip),%eax        # 61dba4 <longestFileName>
  4027a5:	39 c2                	cmp    %eax,%edx
  4027a7:	7d 40                	jge    4027e9 <pad+0x65>
  4027a9:	c7 45 ec 01 00 00 00 	movl   $0x1,-0x14(%rbp)
  4027b0:	eb 18                	jmp    4027ca <pad+0x46>
  4027b2:	48 8b 05 f7 aa 21 00 	mov    0x21aaf7(%rip),%rax        # 61d2b0 <stderr@@GLIBC_2.2.5>
  4027b9:	48 89 c6             	mov    %rax,%rsi
  4027bc:	bf 20 00 00 00       	mov    $0x20,%edi
  4027c1:	e8 da e9 ff ff       	callq  4011a0 <fputc@plt>
  4027c6:	83 45 ec 01          	addl   $0x1,-0x14(%rbp)
  4027ca:	8b 1d d4 b3 21 00    	mov    0x21b3d4(%rip),%ebx        # 61dba4 <longestFileName>
  4027d0:	48 8b 45 d8          	mov    -0x28(%rbp),%rax
  4027d4:	48 89 c7             	mov    %rax,%rdi
  4027d7:	e8 74 e9 ff ff       	callq  401150 <strlen@plt>
  4027dc:	89 da                	mov    %ebx,%edx
  4027de:	29 c2                	sub    %eax,%edx
  4027e0:	89 d0                	mov    %edx,%eax
  4027e2:	3b 45 ec             	cmp    -0x14(%rbp),%eax
  4027e5:	7d cb                	jge    4027b2 <pad+0x2e>
  4027e7:	eb 01                	jmp    4027ea <pad+0x66>
  4027e9:	90                   	nop
  4027ea:	48 83 c4 28          	add    $0x28,%rsp
  4027ee:	5b                   	pop    %rbx
  4027ef:	5d                   	pop    %rbp
  4027f0:	c3                   	retq   

00000000004027f1 <copyFileName>:
  4027f1:	55                   	push   %rbp
  4027f2:	48 89 e5             	mov    %rsp,%rbp
  4027f5:	48 83 ec 10          	sub    $0x10,%rsp
  4027f9:	48 89 7d f8          	mov    %rdi,-0x8(%rbp)
  4027fd:	48 89 75 f0          	mov    %rsi,-0x10(%rbp)
  402801:	48 8b 45 f0          	mov    -0x10(%rbp),%rax
  402805:	48 89 c7             	mov    %rax,%rdi
  402808:	e8 43 e9 ff ff       	callq  401150 <strlen@plt>
  40280d:	48 3d 00 04 00 00    	cmp    $0x400,%rax
  402813:	76 39                	jbe    40284e <copyFileName+0x5d>
  402815:	48 8b 05 94 aa 21 00 	mov    0x21aa94(%rip),%rax        # 61d2b0 <stderr@@GLIBC_2.2.5>
  40281c:	48 8b 55 f0          	mov    -0x10(%rbp),%rdx
  402820:	b9 00 04 00 00       	mov    $0x400,%ecx
  402825:	be 20 95 41 00       	mov    $0x419520,%esi
  40282a:	48 89 c7             	mov    %rax,%rdi
  40282d:	b8 00 00 00 00       	mov    $0x0,%eax
  402832:	e8 b9 e9 ff ff       	callq  4011f0 <fprintf@plt>
  402837:	bf 01 00 00 00       	mov    $0x1,%edi
  40283c:	e8 a9 fa ff ff       	callq  4022ea <setExit>
  402841:	8b 05 6d b3 21 00    	mov    0x21b36d(%rip),%eax        # 61dbb4 <exitValue>
  402847:	89 c7                	mov    %eax,%edi
  402849:	e8 72 ea ff ff       	callq  4012c0 <exit@plt>
  40284e:	48 8b 4d f0          	mov    -0x10(%rbp),%rcx
  402852:	48 8b 45 f8          	mov    -0x8(%rbp),%rax
  402856:	ba 00 04 00 00       	mov    $0x400,%edx
  40285b:	48 89 ce             	mov    %rcx,%rsi
  40285e:	48 89 c7             	mov    %rax,%rdi
  402861:	e8 3a e8 ff ff       	callq  4010a0 <strncpy@plt>
  402866:	48 8b 45 f8          	mov    -0x8(%rbp),%rax
  40286a:	48 05 00 04 00 00    	add    $0x400,%rax
  402870:	c6 00 00             	movb   $0x0,(%rax)
  402873:	c9                   	leaveq 
  402874:	c3                   	retq   

0000000000402875 <fileExists>:
  402875:	55                   	push   %rbp
  402876:	48 89 e5             	mov    %rsp,%rbp
  402879:	48 83 ec 20          	sub    $0x20,%rsp
  40287d:	48 89 7d e8          	mov    %rdi,-0x18(%rbp)
  402881:	48 8b 45 e8          	mov    -0x18(%rbp),%rax
  402885:	be 98 95 41 00       	mov    $0x419598,%esi
  40288a:	48 89 c7             	mov    %rax,%rdi
  40288d:	e8 fe e9 ff ff       	callq  401290 <fopen@plt>
  402892:	48 89 45 f8          	mov    %rax,-0x8(%rbp)
  402896:	48 83 7d f8 00       	cmpq   $0x0,-0x8(%rbp)
  40289b:	0f 95 c0             	setne  %al
  40289e:	88 45 f7             	mov    %al,-0x9(%rbp)
  4028a1:	48 83 7d f8 00       	cmpq   $0x0,-0x8(%rbp)
  4028a6:	74 0c                	je     4028b4 <fileExists+0x3f>
  4028a8:	48 8b 45 f8          	mov    -0x8(%rbp),%rax
  4028ac:	48 89 c7             	mov    %rax,%rdi
  4028af:	e8 6c e8 ff ff       	callq  401120 <fclose@plt>
  4028b4:	0f b6 45 f7          	movzbl -0x9(%rbp),%eax
  4028b8:	c9                   	leaveq 
  4028b9:	c3                   	retq   

00000000004028ba <fopen_output_safely>:
  4028ba:	55                   	push   %rbp
  4028bb:	48 89 e5             	mov    %rsp,%rbp
  4028be:	48 83 ec 20          	sub    $0x20,%rsp
  4028c2:	48 89 7d e8          	mov    %rdi,-0x18(%rbp)
  4028c6:	48 89 75 e0          	mov    %rsi,-0x20(%rbp)
  4028ca:	48 8b 45 e8          	mov    -0x18(%rbp),%rax
  4028ce:	ba 80 01 00 00       	mov    $0x180,%edx
  4028d3:	be c1 00 00 00       	mov    $0xc1,%esi
  4028d8:	48 89 c7             	mov    %rax,%rdi
  4028db:	b8 00 00 00 00       	mov    $0x0,%eax
  4028e0:	e8 9b e9 ff ff       	callq  401280 <open@plt>
  4028e5:	89 45 fc             	mov    %eax,-0x4(%rbp)
  4028e8:	83 7d fc ff          	cmpl   $0xffffffff,-0x4(%rbp)
  4028ec:	75 07                	jne    4028f5 <fopen_output_safely+0x3b>
  4028ee:	b8 00 00 00 00       	mov    $0x0,%eax
  4028f3:	eb 2a                	jmp    40291f <fopen_output_safely+0x65>
  4028f5:	48 8b 55 e0          	mov    -0x20(%rbp),%rdx
  4028f9:	8b 45 fc             	mov    -0x4(%rbp),%eax
  4028fc:	48 89 d6             	mov    %rdx,%rsi
  4028ff:	89 c7                	mov    %eax,%edi
  402901:	e8 5a e9 ff ff       	callq  401260 <fdopen@plt>
  402906:	48 89 45 f0          	mov    %rax,-0x10(%rbp)
  40290a:	48 83 7d f0 00       	cmpq   $0x0,-0x10(%rbp)
  40290f:	75 0a                	jne    40291b <fopen_output_safely+0x61>
  402911:	8b 45 fc             	mov    -0x4(%rbp),%eax
  402914:	89 c7                	mov    %eax,%edi
  402916:	e8 75 e8 ff ff       	callq  401190 <close@plt>
  40291b:	48 8b 45 f0          	mov    -0x10(%rbp),%rax
  40291f:	c9                   	leaveq 
  402920:	c3                   	retq   

0000000000402921 <notAStandardFile>:
  402921:	55                   	push   %rbp
  402922:	48 89 e5             	mov    %rsp,%rbp
  402925:	48 81 ec b0 00 00 00 	sub    $0xb0,%rsp
  40292c:	48 89 bd 58 ff ff ff 	mov    %rdi,-0xa8(%rbp)
  402933:	48 8d 95 60 ff ff ff 	lea    -0xa0(%rbp),%rdx
  40293a:	48 8b 85 58 ff ff ff 	mov    -0xa8(%rbp),%rax
  402941:	48 89 d6             	mov    %rdx,%rsi
  402944:	48 89 c7             	mov    %rax,%rdi
  402947:	e8 d4 5c 01 00       	callq  418620 <__lstat>
  40294c:	89 45 fc             	mov    %eax,-0x4(%rbp)
  40294f:	83 7d fc 00          	cmpl   $0x0,-0x4(%rbp)
  402953:	74 07                	je     40295c <notAStandardFile+0x3b>
  402955:	b8 01 00 00 00       	mov    $0x1,%eax
  40295a:	eb 1e                	jmp    40297a <notAStandardFile+0x59>
  40295c:	8b 85 78 ff ff ff    	mov    -0x88(%rbp),%eax
  402962:	25 00 f0 00 00       	and    $0xf000,%eax
  402967:	3d 00 80 00 00       	cmp    $0x8000,%eax
  40296c:	75 07                	jne    402975 <notAStandardFile+0x54>
  40296e:	b8 00 00 00 00       	mov    $0x0,%eax
  402973:	eb 05                	jmp    40297a <notAStandardFile+0x59>
  402975:	b8 01 00 00 00       	mov    $0x1,%eax
  40297a:	c9                   	leaveq 
  40297b:	c3                   	retq   

000000000040297c <countHardLinks>:
  40297c:	55                   	push   %rbp
  40297d:	48 89 e5             	mov    %rsp,%rbp
  402980:	48 81 ec b0 00 00 00 	sub    $0xb0,%rsp
  402987:	48 89 bd 58 ff ff ff 	mov    %rdi,-0xa8(%rbp)
  40298e:	48 8d 95 60 ff ff ff 	lea    -0xa0(%rbp),%rdx
  402995:	48 8b 85 58 ff ff ff 	mov    -0xa8(%rbp),%rax
  40299c:	48 89 d6             	mov    %rdx,%rsi
  40299f:	48 89 c7             	mov    %rax,%rdi
  4029a2:	e8 79 5c 01 00       	callq  418620 <__lstat>
  4029a7:	89 45 fc             	mov    %eax,-0x4(%rbp)
  4029aa:	83 7d fc 00          	cmpl   $0x0,-0x4(%rbp)
  4029ae:	74 07                	je     4029b7 <countHardLinks+0x3b>
  4029b0:	b8 00 00 00 00       	mov    $0x0,%eax
  4029b5:	eb 0a                	jmp    4029c1 <countHardLinks+0x45>
  4029b7:	48 8b 85 70 ff ff ff 	mov    -0x90(%rbp),%rax
  4029be:	83 e8 01             	sub    $0x1,%eax
  4029c1:	c9                   	leaveq 
  4029c2:	c3                   	retq   

00000000004029c3 <saveInputFileMetaInfo>:
  4029c3:	55                   	push   %rbp
  4029c4:	48 89 e5             	mov    %rsp,%rbp
  4029c7:	48 83 ec 20          	sub    $0x20,%rsp
  4029cb:	48 89 7d e8          	mov    %rdi,-0x18(%rbp)
  4029cf:	48 8b 45 e8          	mov    -0x18(%rbp),%rax
  4029d3:	be c0 d2 61 00       	mov    $0x61d2c0,%esi
  4029d8:	48 89 c7             	mov    %rax,%rdi
  4029db:	e8 30 5c 01 00       	callq  418610 <__stat>
  4029e0:	89 45 fc             	mov    %eax,-0x4(%rbp)
  4029e3:	83 7d fc 00          	cmpl   $0x0,-0x4(%rbp)
  4029e7:	74 05                	je     4029ee <saveInputFileMetaInfo+0x2b>
  4029e9:	e8 32 fc ff ff       	callq  402620 <ioError>
  4029ee:	c9                   	leaveq 
  4029ef:	c3                   	retq   

00000000004029f0 <applySavedMetaInfoToOutputFile>:
  4029f0:	55                   	push   %rbp
  4029f1:	48 89 e5             	mov    %rsp,%rbp
  4029f4:	48 83 ec 30          	sub    $0x30,%rsp
  4029f8:	48 89 7d d8          	mov    %rdi,-0x28(%rbp)
  4029fc:	48 8b 05 05 a9 21 00 	mov    0x21a905(%rip),%rax        # 61d308 <fileMetaInfo+0x48>
  402a03:	48 89 45 e0          	mov    %rax,-0x20(%rbp)
  402a07:	48 8b 05 0a a9 21 00 	mov    0x21a90a(%rip),%rax        # 61d318 <fileMetaInfo+0x58>
  402a0e:	48 89 45 e8          	mov    %rax,-0x18(%rbp)
  402a12:	8b 15 c0 a8 21 00    	mov    0x21a8c0(%rip),%edx        # 61d2d8 <fileMetaInfo+0x18>
  402a18:	48 8b 45 d8          	mov    -0x28(%rbp),%rax
  402a1c:	89 d6                	mov    %edx,%esi
  402a1e:	48 89 c7             	mov    %rax,%rdi
  402a21:	e8 4a e8 ff ff       	callq  401270 <chmod@plt>
  402a26:	89 45 fc             	mov    %eax,-0x4(%rbp)
  402a29:	83 7d fc 00          	cmpl   $0x0,-0x4(%rbp)
  402a2d:	74 05                	je     402a34 <applySavedMetaInfoToOutputFile+0x44>
  402a2f:	e8 ec fb ff ff       	callq  402620 <ioError>
  402a34:	48 8d 55 e0          	lea    -0x20(%rbp),%rdx
  402a38:	48 8b 45 d8          	mov    -0x28(%rbp),%rax
  402a3c:	48 89 d6             	mov    %rdx,%rsi
  402a3f:	48 89 c7             	mov    %rax,%rdi
  402a42:	e8 29 e6 ff ff       	callq  401070 <utime@plt>
  402a47:	89 45 fc             	mov    %eax,-0x4(%rbp)
  402a4a:	83 7d fc 00          	cmpl   $0x0,-0x4(%rbp)
  402a4e:	74 05                	je     402a55 <applySavedMetaInfoToOutputFile+0x65>
  402a50:	e8 cb fb ff ff       	callq  402620 <ioError>
  402a55:	8b 15 85 a8 21 00    	mov    0x21a885(%rip),%edx        # 61d2e0 <fileMetaInfo+0x20>
  402a5b:	8b 0d 7b a8 21 00    	mov    0x21a87b(%rip),%ecx        # 61d2dc <fileMetaInfo+0x1c>
  402a61:	48 8b 45 d8          	mov    -0x28(%rbp),%rax
  402a65:	89 ce                	mov    %ecx,%esi
  402a67:	48 89 c7             	mov    %rax,%rdi
  402a6a:	e8 e1 e7 ff ff       	callq  401250 <chown@plt>
  402a6f:	89 45 fc             	mov    %eax,-0x4(%rbp)
  402a72:	c9                   	leaveq 
  402a73:	c3                   	retq   

0000000000402a74 <containsDubiousChars>:
  402a74:	55                   	push   %rbp
  402a75:	48 89 e5             	mov    %rsp,%rbp
  402a78:	48 89 7d f8          	mov    %rdi,-0x8(%rbp)
  402a7c:	b8 00 00 00 00       	mov    $0x0,%eax
  402a81:	5d                   	pop    %rbp
  402a82:	c3                   	retq   

0000000000402a83 <hasSuffix>:
  402a83:	55                   	push   %rbp
  402a84:	48 89 e5             	mov    %rsp,%rbp
  402a87:	48 83 ec 20          	sub    $0x20,%rsp
  402a8b:	48 89 7d e8          	mov    %rdi,-0x18(%rbp)
  402a8f:	48 89 75 e0          	mov    %rsi,-0x20(%rbp)
  402a93:	48 8b 45 e8          	mov    -0x18(%rbp),%rax
  402a97:	48 89 c7             	mov    %rax,%rdi
  402a9a:	e8 b1 e6 ff ff       	callq  401150 <strlen@plt>
  402a9f:	89 45 fc             	mov    %eax,-0x4(%rbp)
  402aa2:	48 8b 45 e0          	mov    -0x20(%rbp),%rax
  402aa6:	48 89 c7             	mov    %rax,%rdi
  402aa9:	e8 a2 e6 ff ff       	callq  401150 <strlen@plt>
  402aae:	89 45 f8             	mov    %eax,-0x8(%rbp)
  402ab1:	8b 45 fc             	mov    -0x4(%rbp),%eax
  402ab4:	3b 45 f8             	cmp    -0x8(%rbp),%eax
  402ab7:	7d 07                	jge    402ac0 <hasSuffix+0x3d>
  402ab9:	b8 00 00 00 00       	mov    $0x0,%eax
  402abe:	eb 34                	jmp    402af4 <hasSuffix+0x71>
  402ac0:	8b 45 fc             	mov    -0x4(%rbp),%eax
  402ac3:	48 63 d0             	movslq %eax,%rdx
  402ac6:	8b 45 f8             	mov    -0x8(%rbp),%eax
  402ac9:	48 98                	cltq   
  402acb:	48 29 c2             	sub    %rax,%rdx
  402ace:	48 8b 45 e8          	mov    -0x18(%rbp),%rax
  402ad2:	48 01 c2             	add    %rax,%rdx
  402ad5:	48 8b 45 e0          	mov    -0x20(%rbp),%rax
  402ad9:	48 89 c6             	mov    %rax,%rsi
  402adc:	48 89 d7             	mov    %rdx,%rdi
  402adf:	e8 dc e6 ff ff       	callq  4011c0 <strcmp@plt>
  402ae4:	85 c0                	test   %eax,%eax
  402ae6:	75 07                	jne    402aef <hasSuffix+0x6c>
  402ae8:	b8 01 00 00 00       	mov    $0x1,%eax
  402aed:	eb 05                	jmp    402af4 <hasSuffix+0x71>
  402aef:	b8 00 00 00 00       	mov    $0x0,%eax
  402af4:	c9                   	leaveq 
  402af5:	c3                   	retq   

0000000000402af6 <mapSuffix>:
  402af6:	55                   	push   %rbp
  402af7:	48 89 e5             	mov    %rsp,%rbp
  402afa:	53                   	push   %rbx
  402afb:	48 83 ec 28          	sub    $0x28,%rsp
  402aff:	48 89 7d e8          	mov    %rdi,-0x18(%rbp)
  402b03:	48 89 75 e0          	mov    %rsi,-0x20(%rbp)
  402b07:	48 89 55 d8          	mov    %rdx,-0x28(%rbp)
  402b0b:	48 8b 55 e0          	mov    -0x20(%rbp),%rdx
  402b0f:	48 8b 45 e8          	mov    -0x18(%rbp),%rax
  402b13:	48 89 d6             	mov    %rdx,%rsi
  402b16:	48 89 c7             	mov    %rax,%rdi
  402b19:	e8 65 ff ff ff       	callq  402a83 <hasSuffix>
  402b1e:	84 c0                	test   %al,%al
  402b20:	75 07                	jne    402b29 <mapSuffix+0x33>
  402b22:	b8 00 00 00 00       	mov    $0x0,%eax
  402b27:	eb 43                	jmp    402b6c <mapSuffix+0x76>
  402b29:	48 8b 45 e8          	mov    -0x18(%rbp),%rax
  402b2d:	48 89 c7             	mov    %rax,%rdi
  402b30:	e8 1b e6 ff ff       	callq  401150 <strlen@plt>
  402b35:	48 89 c3             	mov    %rax,%rbx
  402b38:	48 8b 45 e0          	mov    -0x20(%rbp),%rax
  402b3c:	48 89 c7             	mov    %rax,%rdi
  402b3f:	e8 0c e6 ff ff       	callq  401150 <strlen@plt>
  402b44:	48 89 da             	mov    %rbx,%rdx
  402b47:	48 29 c2             	sub    %rax,%rdx
  402b4a:	48 8b 45 e8          	mov    -0x18(%rbp),%rax
  402b4e:	48 01 d0             	add    %rdx,%rax
  402b51:	c6 00 00             	movb   $0x0,(%rax)
  402b54:	48 8b 55 d8          	mov    -0x28(%rbp),%rdx
  402b58:	48 8b 45 e8          	mov    -0x18(%rbp),%rax
  402b5c:	48 89 d6             	mov    %rdx,%rsi
  402b5f:	48 89 c7             	mov    %rax,%rdi
  402b62:	e8 49 e7 ff ff       	callq  4012b0 <strcat@plt>
  402b67:	b8 01 00 00 00       	mov    $0x1,%eax
  402b6c:	48 83 c4 28          	add    $0x28,%rsp
  402b70:	5b                   	pop    %rbx
  402b71:	5d                   	pop    %rbp
  402b72:	c3                   	retq   

0000000000402b73 <compress>:
  402b73:	55                   	push   %rbp
  402b74:	48 89 e5             	mov    %rsp,%rbp
  402b77:	48 81 ec c0 00 00 00 	sub    $0xc0,%rsp
  402b7e:	48 89 bd 48 ff ff ff 	mov    %rdi,-0xb8(%rbp)
  402b85:	c6 05 60 b8 21 00 00 	movb   $0x0,0x21b860(%rip)        # 61e3ec <deleteOutputOnInterrupt>
  402b8c:	48 83 bd 48 ff ff ff 	cmpq   $0x0,-0xb8(%rbp)
  402b93:	00 
  402b94:	75 15                	jne    402bab <compress+0x38>
  402b96:	8b 05 0c b0 21 00    	mov    0x21b00c(%rip),%eax        # 61dba8 <srcMode>
  402b9c:	83 f8 01             	cmp    $0x1,%eax
  402b9f:	74 0a                	je     402bab <compress+0x38>
  402ba1:	bf b5 95 41 00       	mov    $0x4195b5,%edi
  402ba6:	e8 ac f9 ff ff       	callq  402557 <panic>
  402bab:	8b 05 f7 af 21 00    	mov    0x21aff7(%rip),%eax        # 61dba8 <srcMode>
  402bb1:	83 f8 02             	cmp    $0x2,%eax
  402bb4:	0f 84 99 00 00 00    	je     402c53 <compress+0xe0>
  402bba:	83 f8 03             	cmp    $0x3,%eax
  402bbd:	74 2c                	je     402beb <compress+0x78>
  402bbf:	83 f8 01             	cmp    $0x1,%eax
  402bc2:	0f 85 af 00 00 00    	jne    402c77 <compress+0x104>
  402bc8:	be ca 95 41 00       	mov    $0x4195ca,%esi
  402bcd:	bf e0 df 61 00       	mov    $0x61dfe0,%edi
  402bd2:	e8 1a fc ff ff       	callq  4027f1 <copyFileName>
  402bd7:	be d2 95 41 00       	mov    $0x4195d2,%esi
  402bdc:	bf c0 db 61 00       	mov    $0x61dbc0,%edi
  402be1:	e8 0b fc ff ff       	callq  4027f1 <copyFileName>
  402be6:	e9 8c 00 00 00       	jmpq   402c77 <compress+0x104>
  402beb:	48 8b 85 48 ff ff ff 	mov    -0xb8(%rbp),%rax
  402bf2:	48 89 c6             	mov    %rax,%rsi
  402bf5:	bf e0 df 61 00       	mov    $0x61dfe0,%edi
  402bfa:	e8 f2 fb ff ff       	callq  4027f1 <copyFileName>
  402bff:	48 8b 85 48 ff ff ff 	mov    -0xb8(%rbp),%rax
  402c06:	48 89 c6             	mov    %rax,%rsi
  402c09:	bf c0 db 61 00       	mov    $0x61dbc0,%edi
  402c0e:	e8 de fb ff ff       	callq  4027f1 <copyFileName>
  402c13:	b8 c0 db 61 00       	mov    $0x61dbc0,%eax
  402c18:	48 c7 85 40 ff ff ff 	movq   $0xffffffffffffffff,-0xc0(%rbp)
  402c1f:	ff ff ff ff 
  402c23:	48 89 c2             	mov    %rax,%rdx
  402c26:	b8 00 00 00 00       	mov    $0x0,%eax
  402c2b:	48 8b 8d 40 ff ff ff 	mov    -0xc0(%rbp),%rcx
  402c32:	48 89 d7             	mov    %rdx,%rdi
  402c35:	f2 ae                	repnz scas %es:(%rdi),%al
  402c37:	48 89 c8             	mov    %rcx,%rax
  402c3a:	48 f7 d0             	not    %rax
  402c3d:	48 83 e8 01          	sub    $0x1,%rax
  402c41:	48 05 c0 db 61 00    	add    $0x61dbc0,%rax
  402c47:	c7 00 2e 62 7a 32    	movl   $0x327a622e,(%rax)
  402c4d:	c6 40 04 00          	movb   $0x0,0x4(%rax)
  402c51:	eb 24                	jmp    402c77 <compress+0x104>
  402c53:	48 8b 85 48 ff ff ff 	mov    -0xb8(%rbp),%rax
  402c5a:	48 89 c6             	mov    %rax,%rsi
  402c5d:	bf e0 df 61 00       	mov    $0x61dfe0,%edi
  402c62:	e8 8a fb ff ff       	callq  4027f1 <copyFileName>
  402c67:	be d2 95 41 00       	mov    $0x4195d2,%esi
  402c6c:	bf c0 db 61 00       	mov    $0x61dbc0,%edi
  402c71:	e8 7b fb ff ff       	callq  4027f1 <copyFileName>
  402c76:	90                   	nop
  402c77:	8b 05 2b af 21 00    	mov    0x21af2b(%rip),%eax        # 61dba8 <srcMode>
  402c7d:	83 f8 01             	cmp    $0x1,%eax
  402c80:	74 4d                	je     402ccf <compress+0x15c>
  402c82:	bf e0 df 61 00       	mov    $0x61dfe0,%edi
  402c87:	e8 e8 fd ff ff       	callq  402a74 <containsDubiousChars>
  402c8c:	84 c0                	test   %al,%al
  402c8e:	74 3f                	je     402ccf <compress+0x15c>
  402c90:	0f b6 05 21 af 21 00 	movzbl 0x21af21(%rip),%eax        # 61dbb8 <noisy>
  402c97:	84 c0                	test   %al,%al
  402c99:	74 25                	je     402cc0 <compress+0x14d>
  402c9b:	48 8b 15 56 b7 21 00 	mov    0x21b756(%rip),%rdx        # 61e3f8 <progName>
  402ca2:	48 8b 05 07 a6 21 00 	mov    0x21a607(%rip),%rax        # 61d2b0 <stderr@@GLIBC_2.2.5>
  402ca9:	b9 e0 df 61 00       	mov    $0x61dfe0,%ecx
  402cae:	be e0 95 41 00       	mov    $0x4195e0,%esi
  402cb3:	48 89 c7             	mov    %rax,%rdi
  402cb6:	b8 00 00 00 00       	mov    $0x0,%eax
  402cbb:	e8 30 e5 ff ff       	callq  4011f0 <fprintf@plt>
  402cc0:	bf 01 00 00 00       	mov    $0x1,%edi
  402cc5:	e8 20 f6 ff ff       	callq  4022ea <setExit>
  402cca:	e9 f3 05 00 00       	jmpq   4032c2 <compress+0x74f>
  402ccf:	8b 05 d3 ae 21 00    	mov    0x21aed3(%rip),%eax        # 61dba8 <srcMode>
  402cd5:	83 f8 01             	cmp    $0x1,%eax
  402cd8:	74 56                	je     402d30 <compress+0x1bd>
  402cda:	bf e0 df 61 00       	mov    $0x61dfe0,%edi
  402cdf:	e8 91 fb ff ff       	callq  402875 <fileExists>
  402ce4:	84 c0                	test   %al,%al
  402ce6:	75 48                	jne    402d30 <compress+0x1bd>
  402ce8:	e8 a3 e3 ff ff       	callq  401090 <__errno_location@plt>
  402ced:	8b 00                	mov    (%rax),%eax
  402cef:	89 c7                	mov    %eax,%edi
  402cf1:	e8 ea e5 ff ff       	callq  4012e0 <strerror@plt>
  402cf6:	48 89 c1             	mov    %rax,%rcx
  402cf9:	48 8b 15 f8 b6 21 00 	mov    0x21b6f8(%rip),%rdx        # 61e3f8 <progName>
  402d00:	48 8b 05 a9 a5 21 00 	mov    0x21a5a9(%rip),%rax        # 61d2b0 <stderr@@GLIBC_2.2.5>
  402d07:	49 89 c8             	mov    %rcx,%r8
  402d0a:	b9 e0 df 61 00       	mov    $0x61dfe0,%ecx
  402d0f:	be 08 96 41 00       	mov    $0x419608,%esi
  402d14:	48 89 c7             	mov    %rax,%rdi
  402d17:	b8 00 00 00 00       	mov    $0x0,%eax
  402d1c:	e8 cf e4 ff ff       	callq  4011f0 <fprintf@plt>
  402d21:	bf 01 00 00 00       	mov    $0x1,%edi
  402d26:	e8 bf f5 ff ff       	callq  4022ea <setExit>
  402d2b:	e9 92 05 00 00       	jmpq   4032c2 <compress+0x74f>
  402d30:	c7 45 ec 00 00 00 00 	movl   $0x0,-0x14(%rbp)
  402d37:	eb 71                	jmp    402daa <compress+0x237>
  402d39:	8b 45 ec             	mov    -0x14(%rbp),%eax
  402d3c:	48 98                	cltq   
  402d3e:	48 8b 04 c5 a0 c5 61 	mov    0x61c5a0(,%rax,8),%rax
  402d45:	00 
  402d46:	48 89 c6             	mov    %rax,%rsi
  402d49:	bf e0 df 61 00       	mov    $0x61dfe0,%edi
  402d4e:	e8 30 fd ff ff       	callq  402a83 <hasSuffix>
  402d53:	84 c0                	test   %al,%al
  402d55:	74 4f                	je     402da6 <compress+0x233>
  402d57:	0f b6 05 5a ae 21 00 	movzbl 0x21ae5a(%rip),%eax        # 61dbb8 <noisy>
  402d5e:	84 c0                	test   %al,%al
  402d60:	74 35                	je     402d97 <compress+0x224>
  402d62:	8b 45 ec             	mov    -0x14(%rbp),%eax
  402d65:	48 98                	cltq   
  402d67:	48 8b 0c c5 a0 c5 61 	mov    0x61c5a0(,%rax,8),%rcx
  402d6e:	00 
  402d6f:	48 8b 15 82 b6 21 00 	mov    0x21b682(%rip),%rdx        # 61e3f8 <progName>
  402d76:	48 8b 05 33 a5 21 00 	mov    0x21a533(%rip),%rax        # 61d2b0 <stderr@@GLIBC_2.2.5>
  402d7d:	49 89 c8             	mov    %rcx,%r8
  402d80:	b9 e0 df 61 00       	mov    $0x61dfe0,%ecx
  402d85:	be 30 96 41 00       	mov    $0x419630,%esi
  402d8a:	48 89 c7             	mov    %rax,%rdi
  402d8d:	b8 00 00 00 00       	mov    $0x0,%eax
  402d92:	e8 59 e4 ff ff       	callq  4011f0 <fprintf@plt>
  402d97:	bf 01 00 00 00       	mov    $0x1,%edi
  402d9c:	e8 49 f5 ff ff       	callq  4022ea <setExit>
  402da1:	e9 1c 05 00 00       	jmpq   4032c2 <compress+0x74f>
  402da6:	83 45 ec 01          	addl   $0x1,-0x14(%rbp)
  402daa:	83 7d ec 03          	cmpl   $0x3,-0x14(%rbp)
  402dae:	7e 89                	jle    402d39 <compress+0x1c6>
  402db0:	8b 05 f2 ad 21 00    	mov    0x21adf2(%rip),%eax        # 61dba8 <srcMode>
  402db6:	83 f8 03             	cmp    $0x3,%eax
  402db9:	74 0b                	je     402dc6 <compress+0x253>
  402dbb:	8b 05 e7 ad 21 00    	mov    0x21ade7(%rip),%eax        # 61dba8 <srcMode>
  402dc1:	83 f8 02             	cmp    $0x2,%eax
  402dc4:	75 5a                	jne    402e20 <compress+0x2ad>
  402dc6:	48 8d 85 50 ff ff ff 	lea    -0xb0(%rbp),%rax
  402dcd:	48 89 c6             	mov    %rax,%rsi
  402dd0:	bf e0 df 61 00       	mov    $0x61dfe0,%edi
  402dd5:	e8 36 58 01 00       	callq  418610 <__stat>
  402dda:	8b 85 68 ff ff ff    	mov    -0x98(%rbp),%eax
  402de0:	25 00 f0 00 00       	and    $0xf000,%eax
  402de5:	3d 00 40 00 00       	cmp    $0x4000,%eax
  402dea:	75 34                	jne    402e20 <compress+0x2ad>
  402dec:	48 8b 15 05 b6 21 00 	mov    0x21b605(%rip),%rdx        # 61e3f8 <progName>
  402df3:	48 8b 05 b6 a4 21 00 	mov    0x21a4b6(%rip),%rax        # 61d2b0 <stderr@@GLIBC_2.2.5>
  402dfa:	b9 e0 df 61 00       	mov    $0x61dfe0,%ecx
  402dff:	be 60 96 41 00       	mov    $0x419660,%esi
  402e04:	48 89 c7             	mov    %rax,%rdi
  402e07:	b8 00 00 00 00       	mov    $0x0,%eax
  402e0c:	e8 df e3 ff ff       	callq  4011f0 <fprintf@plt>
  402e11:	bf 01 00 00 00       	mov    $0x1,%edi
  402e16:	e8 cf f4 ff ff       	callq  4022ea <setExit>
  402e1b:	e9 a2 04 00 00       	jmpq   4032c2 <compress+0x74f>
  402e20:	8b 05 82 ad 21 00    	mov    0x21ad82(%rip),%eax        # 61dba8 <srcMode>
  402e26:	83 f8 03             	cmp    $0x3,%eax
  402e29:	75 58                	jne    402e83 <compress+0x310>
  402e2b:	0f b6 05 b9 b5 21 00 	movzbl 0x21b5b9(%rip),%eax        # 61e3eb <forceOverwrite>
  402e32:	84 c0                	test   %al,%al
  402e34:	75 4d                	jne    402e83 <compress+0x310>
  402e36:	bf e0 df 61 00       	mov    $0x61dfe0,%edi
  402e3b:	e8 e1 fa ff ff       	callq  402921 <notAStandardFile>
  402e40:	84 c0                	test   %al,%al
  402e42:	74 3f                	je     402e83 <compress+0x310>
  402e44:	0f b6 05 6d ad 21 00 	movzbl 0x21ad6d(%rip),%eax        # 61dbb8 <noisy>
  402e4b:	84 c0                	test   %al,%al
  402e4d:	74 25                	je     402e74 <compress+0x301>
  402e4f:	48 8b 15 a2 b5 21 00 	mov    0x21b5a2(%rip),%rdx        # 61e3f8 <progName>
  402e56:	48 8b 05 53 a4 21 00 	mov    0x21a453(%rip),%rax        # 61d2b0 <stderr@@GLIBC_2.2.5>
  402e5d:	b9 e0 df 61 00       	mov    $0x61dfe0,%ecx
  402e62:	be 88 96 41 00       	mov    $0x419688,%esi
  402e67:	48 89 c7             	mov    %rax,%rdi
  402e6a:	b8 00 00 00 00       	mov    $0x0,%eax
  402e6f:	e8 7c e3 ff ff       	callq  4011f0 <fprintf@plt>
  402e74:	bf 01 00 00 00       	mov    $0x1,%edi
  402e79:	e8 6c f4 ff ff       	callq  4022ea <setExit>
  402e7e:	e9 3f 04 00 00       	jmpq   4032c2 <compress+0x74f>
  402e83:	8b 05 1f ad 21 00    	mov    0x21ad1f(%rip),%eax        # 61dba8 <srcMode>
  402e89:	83 f8 03             	cmp    $0x3,%eax
  402e8c:	75 59                	jne    402ee7 <compress+0x374>
  402e8e:	bf c0 db 61 00       	mov    $0x61dbc0,%edi
  402e93:	e8 dd f9 ff ff       	callq  402875 <fileExists>
  402e98:	84 c0                	test   %al,%al
  402e9a:	74 4b                	je     402ee7 <compress+0x374>
  402e9c:	0f b6 05 48 b5 21 00 	movzbl 0x21b548(%rip),%eax        # 61e3eb <forceOverwrite>
  402ea3:	84 c0                	test   %al,%al
  402ea5:	74 0c                	je     402eb3 <compress+0x340>
  402ea7:	bf c0 db 61 00       	mov    $0x61dbc0,%edi
  402eac:	e8 ff e1 ff ff       	callq  4010b0 <remove@plt>
  402eb1:	eb 34                	jmp    402ee7 <compress+0x374>
  402eb3:	48 8b 15 3e b5 21 00 	mov    0x21b53e(%rip),%rdx        # 61e3f8 <progName>
  402eba:	48 8b 05 ef a3 21 00 	mov    0x21a3ef(%rip),%rax        # 61d2b0 <stderr@@GLIBC_2.2.5>
  402ec1:	b9 c0 db 61 00       	mov    $0x61dbc0,%ecx
  402ec6:	be b8 96 41 00       	mov    $0x4196b8,%esi
  402ecb:	48 89 c7             	mov    %rax,%rdi
  402ece:	b8 00 00 00 00       	mov    $0x0,%eax
  402ed3:	e8 18 e3 ff ff       	callq  4011f0 <fprintf@plt>
  402ed8:	bf 01 00 00 00       	mov    $0x1,%edi
  402edd:	e8 08 f4 ff ff       	callq  4022ea <setExit>
  402ee2:	e9 db 03 00 00       	jmpq   4032c2 <compress+0x74f>
  402ee7:	8b 05 bb ac 21 00    	mov    0x21acbb(%rip),%eax        # 61dba8 <srcMode>
  402eed:	83 f8 03             	cmp    $0x3,%eax
  402ef0:	75 6a                	jne    402f5c <compress+0x3e9>
  402ef2:	0f b6 05 f2 b4 21 00 	movzbl 0x21b4f2(%rip),%eax        # 61e3eb <forceOverwrite>
  402ef9:	84 c0                	test   %al,%al
  402efb:	75 5f                	jne    402f5c <compress+0x3e9>
  402efd:	bf e0 df 61 00       	mov    $0x61dfe0,%edi
  402f02:	e8 75 fa ff ff       	callq  40297c <countHardLinks>
  402f07:	89 45 e8             	mov    %eax,-0x18(%rbp)
  402f0a:	83 7d e8 00          	cmpl   $0x0,-0x18(%rbp)
  402f0e:	7e 4c                	jle    402f5c <compress+0x3e9>
  402f10:	83 7d e8 01          	cmpl   $0x1,-0x18(%rbp)
  402f14:	7e 07                	jle    402f1d <compress+0x3aa>
  402f16:	b8 dc 96 41 00       	mov    $0x4196dc,%eax
  402f1b:	eb 05                	jmp    402f22 <compress+0x3af>
  402f1d:	b8 af 95 41 00       	mov    $0x4195af,%eax
  402f22:	48 8b 15 cf b4 21 00 	mov    0x21b4cf(%rip),%rdx        # 61e3f8 <progName>
  402f29:	48 8b 3d 80 a3 21 00 	mov    0x21a380(%rip),%rdi        # 61d2b0 <stderr@@GLIBC_2.2.5>
  402f30:	8b 4d e8             	mov    -0x18(%rbp),%ecx
  402f33:	49 89 c1             	mov    %rax,%r9
  402f36:	41 89 c8             	mov    %ecx,%r8d
  402f39:	b9 e0 df 61 00       	mov    $0x61dfe0,%ecx
  402f3e:	be e0 96 41 00       	mov    $0x4196e0,%esi
  402f43:	b8 00 00 00 00       	mov    $0x0,%eax
  402f48:	e8 a3 e2 ff ff       	callq  4011f0 <fprintf@plt>
  402f4d:	bf 01 00 00 00       	mov    $0x1,%edi
  402f52:	e8 93 f3 ff ff       	callq  4022ea <setExit>
  402f57:	e9 66 03 00 00       	jmpq   4032c2 <compress+0x74f>
  402f5c:	8b 05 46 ac 21 00    	mov    0x21ac46(%rip),%eax        # 61dba8 <srcMode>
  402f62:	83 f8 03             	cmp    $0x3,%eax
  402f65:	75 0a                	jne    402f71 <compress+0x3fe>
  402f67:	bf e0 df 61 00       	mov    $0x61dfe0,%edi
  402f6c:	e8 52 fa ff ff       	callq  4029c3 <saveInputFileMetaInfo>
  402f71:	8b 05 31 ac 21 00    	mov    0x21ac31(%rip),%eax        # 61dba8 <srcMode>
  402f77:	83 f8 02             	cmp    $0x2,%eax
  402f7a:	0f 84 9c 00 00 00    	je     40301c <compress+0x4a9>
  402f80:	83 f8 03             	cmp    $0x3,%eax
  402f83:	0f 84 87 01 00 00    	je     403110 <compress+0x59d>
  402f89:	83 f8 01             	cmp    $0x1,%eax
  402f8c:	0f 85 68 02 00 00    	jne    4031fa <compress+0x687>
  402f92:	48 8b 05 0f a3 21 00 	mov    0x21a30f(%rip),%rax        # 61d2a8 <stdin@@GLIBC_2.2.5>
  402f99:	48 89 45 f8          	mov    %rax,-0x8(%rbp)
  402f9d:	48 8b 05 fc a2 21 00 	mov    0x21a2fc(%rip),%rax        # 61d2a0 <stdout@@GLIBC_2.2.5>
  402fa4:	48 89 45 f0          	mov    %rax,-0x10(%rbp)
  402fa8:	48 8b 05 f1 a2 21 00 	mov    0x21a2f1(%rip),%rax        # 61d2a0 <stdout@@GLIBC_2.2.5>
  402faf:	48 89 c7             	mov    %rax,%rdi
  402fb2:	e8 49 e2 ff ff       	callq  401200 <fileno@plt>
  402fb7:	89 c7                	mov    %eax,%edi
  402fb9:	e8 42 e1 ff ff       	callq  401100 <isatty@plt>
  402fbe:	85 c0                	test   %eax,%eax
  402fc0:	0f 84 3e 02 00 00    	je     403204 <compress+0x691>
  402fc6:	48 8b 15 2b b4 21 00 	mov    0x21b42b(%rip),%rdx        # 61e3f8 <progName>
  402fcd:	48 8b 05 dc a2 21 00 	mov    0x21a2dc(%rip),%rax        # 61d2b0 <stderr@@GLIBC_2.2.5>
  402fd4:	be 08 97 41 00       	mov    $0x419708,%esi
  402fd9:	48 89 c7             	mov    %rax,%rdi
  402fdc:	b8 00 00 00 00       	mov    $0x0,%eax
  402fe1:	e8 0a e2 ff ff       	callq  4011f0 <fprintf@plt>
  402fe6:	48 8b 0d 0b b4 21 00 	mov    0x21b40b(%rip),%rcx        # 61e3f8 <progName>
  402fed:	48 8b 15 04 b4 21 00 	mov    0x21b404(%rip),%rdx        # 61e3f8 <progName>
  402ff4:	48 8b 05 b5 a2 21 00 	mov    0x21a2b5(%rip),%rax        # 61d2b0 <stderr@@GLIBC_2.2.5>
  402ffb:	be 40 97 41 00       	mov    $0x419740,%esi
  403000:	48 89 c7             	mov    %rax,%rdi
  403003:	b8 00 00 00 00       	mov    $0x0,%eax
  403008:	e8 e3 e1 ff ff       	callq  4011f0 <fprintf@plt>
  40300d:	bf 01 00 00 00       	mov    $0x1,%edi
  403012:	e8 d3 f2 ff ff       	callq  4022ea <setExit>
  403017:	e9 a6 02 00 00       	jmpq   4032c2 <compress+0x74f>
  40301c:	be 98 95 41 00       	mov    $0x419598,%esi
  403021:	bf e0 df 61 00       	mov    $0x61dfe0,%edi
  403026:	e8 65 e2 ff ff       	callq  401290 <fopen@plt>
  40302b:	48 89 45 f8          	mov    %rax,-0x8(%rbp)
  40302f:	48 8b 05 6a a2 21 00 	mov    0x21a26a(%rip),%rax        # 61d2a0 <stdout@@GLIBC_2.2.5>
  403036:	48 89 45 f0          	mov    %rax,-0x10(%rbp)
  40303a:	48 8b 05 5f a2 21 00 	mov    0x21a25f(%rip),%rax        # 61d2a0 <stdout@@GLIBC_2.2.5>
  403041:	48 89 c7             	mov    %rax,%rdi
  403044:	e8 b7 e1 ff ff       	callq  401200 <fileno@plt>
  403049:	89 c7                	mov    %eax,%edi
  40304b:	e8 b0 e0 ff ff       	callq  401100 <isatty@plt>
  403050:	85 c0                	test   %eax,%eax
  403052:	74 69                	je     4030bd <compress+0x54a>
  403054:	48 8b 15 9d b3 21 00 	mov    0x21b39d(%rip),%rdx        # 61e3f8 <progName>
  40305b:	48 8b 05 4e a2 21 00 	mov    0x21a24e(%rip),%rax        # 61d2b0 <stderr@@GLIBC_2.2.5>
  403062:	be 08 97 41 00       	mov    $0x419708,%esi
  403067:	48 89 c7             	mov    %rax,%rdi
  40306a:	b8 00 00 00 00       	mov    $0x0,%eax
  40306f:	e8 7c e1 ff ff       	callq  4011f0 <fprintf@plt>
  403074:	48 8b 0d 7d b3 21 00 	mov    0x21b37d(%rip),%rcx        # 61e3f8 <progName>
  40307b:	48 8b 15 76 b3 21 00 	mov    0x21b376(%rip),%rdx        # 61e3f8 <progName>
  403082:	48 8b 05 27 a2 21 00 	mov    0x21a227(%rip),%rax        # 61d2b0 <stderr@@GLIBC_2.2.5>
  403089:	be 40 97 41 00       	mov    $0x419740,%esi
  40308e:	48 89 c7             	mov    %rax,%rdi
  403091:	b8 00 00 00 00       	mov    $0x0,%eax
  403096:	e8 55 e1 ff ff       	callq  4011f0 <fprintf@plt>
  40309b:	48 83 7d f8 00       	cmpq   $0x0,-0x8(%rbp)
  4030a0:	74 0c                	je     4030ae <compress+0x53b>
  4030a2:	48 8b 45 f8          	mov    -0x8(%rbp),%rax
  4030a6:	48 89 c7             	mov    %rax,%rdi
  4030a9:	e8 72 e0 ff ff       	callq  401120 <fclose@plt>
  4030ae:	bf 01 00 00 00       	mov    $0x1,%edi
  4030b3:	e8 32 f2 ff ff       	callq  4022ea <setExit>
  4030b8:	e9 05 02 00 00       	jmpq   4032c2 <compress+0x74f>
  4030bd:	48 83 7d f8 00       	cmpq   $0x0,-0x8(%rbp)
  4030c2:	0f 85 3f 01 00 00    	jne    403207 <compress+0x694>
  4030c8:	e8 c3 df ff ff       	callq  401090 <__errno_location@plt>
  4030cd:	8b 00                	mov    (%rax),%eax
  4030cf:	89 c7                	mov    %eax,%edi
  4030d1:	e8 0a e2 ff ff       	callq  4012e0 <strerror@plt>
  4030d6:	48 89 c1             	mov    %rax,%rcx
  4030d9:	48 8b 15 18 b3 21 00 	mov    0x21b318(%rip),%rdx        # 61e3f8 <progName>
  4030e0:	48 8b 05 c9 a1 21 00 	mov    0x21a1c9(%rip),%rax        # 61d2b0 <stderr@@GLIBC_2.2.5>
  4030e7:	49 89 c8             	mov    %rcx,%r8
  4030ea:	b9 e0 df 61 00       	mov    $0x61dfe0,%ecx
  4030ef:	be 08 96 41 00       	mov    $0x419608,%esi
  4030f4:	48 89 c7             	mov    %rax,%rdi
  4030f7:	b8 00 00 00 00       	mov    $0x0,%eax
  4030fc:	e8 ef e0 ff ff       	callq  4011f0 <fprintf@plt>
  403101:	bf 01 00 00 00       	mov    $0x1,%edi
  403106:	e8 df f1 ff ff       	callq  4022ea <setExit>
  40310b:	e9 b2 01 00 00       	jmpq   4032c2 <compress+0x74f>
  403110:	be 98 95 41 00       	mov    $0x419598,%esi
  403115:	bf e0 df 61 00       	mov    $0x61dfe0,%edi
  40311a:	e8 71 e1 ff ff       	callq  401290 <fopen@plt>
  40311f:	48 89 45 f8          	mov    %rax,-0x8(%rbp)
  403123:	be 62 97 41 00       	mov    $0x419762,%esi
  403128:	bf c0 db 61 00       	mov    $0x61dbc0,%edi
  40312d:	e8 88 f7 ff ff       	callq  4028ba <fopen_output_safely>
  403132:	48 89 45 f0          	mov    %rax,-0x10(%rbp)
  403136:	48 83 7d f0 00       	cmpq   $0x0,-0x10(%rbp)
  40313b:	75 5b                	jne    403198 <compress+0x625>
  40313d:	e8 4e df ff ff       	callq  401090 <__errno_location@plt>
  403142:	8b 00                	mov    (%rax),%eax
  403144:	89 c7                	mov    %eax,%edi
  403146:	e8 95 e1 ff ff       	callq  4012e0 <strerror@plt>
  40314b:	48 89 c1             	mov    %rax,%rcx
  40314e:	48 8b 15 a3 b2 21 00 	mov    0x21b2a3(%rip),%rdx        # 61e3f8 <progName>
  403155:	48 8b 05 54 a1 21 00 	mov    0x21a154(%rip),%rax        # 61d2b0 <stderr@@GLIBC_2.2.5>
  40315c:	49 89 c8             	mov    %rcx,%r8
  40315f:	b9 c0 db 61 00       	mov    $0x61dbc0,%ecx
  403164:	be 68 97 41 00       	mov    $0x419768,%esi
  403169:	48 89 c7             	mov    %rax,%rdi
  40316c:	b8 00 00 00 00       	mov    $0x0,%eax
  403171:	e8 7a e0 ff ff       	callq  4011f0 <fprintf@plt>
  403176:	48 83 7d f8 00       	cmpq   $0x0,-0x8(%rbp)
  40317b:	74 0c                	je     403189 <compress+0x616>
  40317d:	48 8b 45 f8          	mov    -0x8(%rbp),%rax
  403181:	48 89 c7             	mov    %rax,%rdi
  403184:	e8 97 df ff ff       	callq  401120 <fclose@plt>
  403189:	bf 01 00 00 00       	mov    $0x1,%edi
  40318e:	e8 57 f1 ff ff       	callq  4022ea <setExit>
  403193:	e9 2a 01 00 00       	jmpq   4032c2 <compress+0x74f>
  403198:	48 83 7d f8 00       	cmpq   $0x0,-0x8(%rbp)
  40319d:	75 6b                	jne    40320a <compress+0x697>
  40319f:	e8 ec de ff ff       	callq  401090 <__errno_location@plt>
  4031a4:	8b 00                	mov    (%rax),%eax
  4031a6:	89 c7                	mov    %eax,%edi
  4031a8:	e8 33 e1 ff ff       	callq  4012e0 <strerror@plt>
  4031ad:	48 89 c1             	mov    %rax,%rcx
  4031b0:	48 8b 15 41 b2 21 00 	mov    0x21b241(%rip),%rdx        # 61e3f8 <progName>
  4031b7:	48 8b 05 f2 a0 21 00 	mov    0x21a0f2(%rip),%rax        # 61d2b0 <stderr@@GLIBC_2.2.5>
  4031be:	49 89 c8             	mov    %rcx,%r8
  4031c1:	b9 e0 df 61 00       	mov    $0x61dfe0,%ecx
  4031c6:	be 08 96 41 00       	mov    $0x419608,%esi
  4031cb:	48 89 c7             	mov    %rax,%rdi
  4031ce:	b8 00 00 00 00       	mov    $0x0,%eax
  4031d3:	e8 18 e0 ff ff       	callq  4011f0 <fprintf@plt>
  4031d8:	48 83 7d f0 00       	cmpq   $0x0,-0x10(%rbp)
  4031dd:	74 0c                	je     4031eb <compress+0x678>
  4031df:	48 8b 45 f0          	mov    -0x10(%rbp),%rax
  4031e3:	48 89 c7             	mov    %rax,%rdi
  4031e6:	e8 35 df ff ff       	callq  401120 <fclose@plt>
  4031eb:	bf 01 00 00 00       	mov    $0x1,%edi
  4031f0:	e8 f5 f0 ff ff       	callq  4022ea <setExit>
  4031f5:	e9 c8 00 00 00       	jmpq   4032c2 <compress+0x74f>
  4031fa:	bf 8e 97 41 00       	mov    $0x41978e,%edi
  4031ff:	e8 53 f3 ff ff       	callq  402557 <panic>
  403204:	90                   	nop
  403205:	eb 04                	jmp    40320b <compress+0x698>
  403207:	90                   	nop
  403208:	eb 01                	jmp    40320b <compress+0x698>
  40320a:	90                   	nop
  40320b:	8b 05 5b a5 21 00    	mov    0x21a55b(%rip),%eax        # 61d76c <verbosity>
  403211:	85 c0                	test   %eax,%eax
  403213:	7e 37                	jle    40324c <compress+0x6d9>
  403215:	48 8b 05 94 a0 21 00 	mov    0x21a094(%rip),%rax        # 61d2b0 <stderr@@GLIBC_2.2.5>
  40321c:	ba e0 df 61 00       	mov    $0x61dfe0,%edx
  403221:	be a4 97 41 00       	mov    $0x4197a4,%esi
  403226:	48 89 c7             	mov    %rax,%rdi
  403229:	b8 00 00 00 00       	mov    $0x0,%eax
  40322e:	e8 bd df ff ff       	callq  4011f0 <fprintf@plt>
  403233:	bf e0 df 61 00       	mov    $0x61dfe0,%edi
  403238:	e8 47 f5 ff ff       	callq  402784 <pad>
  40323d:	48 8b 05 6c a0 21 00 	mov    0x21a06c(%rip),%rax        # 61d2b0 <stderr@@GLIBC_2.2.5>
  403244:	48 89 c7             	mov    %rax,%rdi
  403247:	e8 e4 df ff ff       	callq  401230 <fflush@plt>
  40324c:	48 8b 45 f0          	mov    -0x10(%rbp),%rax
  403250:	48 89 05 41 a9 21 00 	mov    %rax,0x21a941(%rip)        # 61db98 <outputHandleJustInCase>
  403257:	c6 05 8e b1 21 00 01 	movb   $0x1,0x21b18e(%rip)        # 61e3ec <deleteOutputOnInterrupt>
  40325e:	48 8b 55 f0          	mov    -0x10(%rbp),%rdx
  403262:	48 8b 45 f8          	mov    -0x8(%rbp),%rax
  403266:	48 89 d6             	mov    %rdx,%rsi
  403269:	48 89 c7             	mov    %rax,%rdi
  40326c:	e8 5d e4 ff ff       	callq  4016ce <compressStream>
  403271:	48 c7 05 1c a9 21 00 	movq   $0x0,0x21a91c(%rip)        # 61db98 <outputHandleJustInCase>
  403278:	00 00 00 00 
  40327c:	8b 05 26 a9 21 00    	mov    0x21a926(%rip),%eax        # 61dba8 <srcMode>
  403282:	83 f8 03             	cmp    $0x3,%eax
  403285:	75 34                	jne    4032bb <compress+0x748>
  403287:	bf c0 db 61 00       	mov    $0x61dbc0,%edi
  40328c:	e8 5f f7 ff ff       	callq  4029f0 <applySavedMetaInfoToOutputFile>
  403291:	c6 05 54 b1 21 00 00 	movb   $0x0,0x21b154(%rip)        # 61e3ec <deleteOutputOnInterrupt>
  403298:	0f b6 05 0d a9 21 00 	movzbl 0x21a90d(%rip),%eax        # 61dbac <keepInputFiles>
  40329f:	84 c0                	test   %al,%al
  4032a1:	75 18                	jne    4032bb <compress+0x748>
  4032a3:	bf e0 df 61 00       	mov    $0x61dfe0,%edi
  4032a8:	e8 03 de ff ff       	callq  4010b0 <remove@plt>
  4032ad:	89 45 e4             	mov    %eax,-0x1c(%rbp)
  4032b0:	83 7d e4 00          	cmpl   $0x0,-0x1c(%rbp)
  4032b4:	74 05                	je     4032bb <compress+0x748>
  4032b6:	e8 65 f3 ff ff       	callq  402620 <ioError>
  4032bb:	c6 05 2a b1 21 00 00 	movb   $0x0,0x21b12a(%rip)        # 61e3ec <deleteOutputOnInterrupt>
  4032c2:	c9                   	leaveq 
  4032c3:	c3                   	retq   

00000000004032c4 <uncompress>:
  4032c4:	55                   	push   %rbp
  4032c5:	48 89 e5             	mov    %rsp,%rbp
  4032c8:	48 81 ec d0 00 00 00 	sub    $0xd0,%rsp
  4032cf:	48 89 bd 38 ff ff ff 	mov    %rdi,-0xc8(%rbp)
  4032d6:	c6 05 0f b1 21 00 00 	movb   $0x0,0x21b10f(%rip)        # 61e3ec <deleteOutputOnInterrupt>
  4032dd:	48 83 bd 38 ff ff ff 	cmpq   $0x0,-0xc8(%rbp)
  4032e4:	00 
  4032e5:	75 15                	jne    4032fc <uncompress+0x38>
  4032e7:	8b 05 bb a8 21 00    	mov    0x21a8bb(%rip),%eax        # 61dba8 <srcMode>
  4032ed:	83 f8 01             	cmp    $0x1,%eax
  4032f0:	74 0a                	je     4032fc <uncompress+0x38>
  4032f2:	bf ab 97 41 00       	mov    $0x4197ab,%edi
  4032f7:	e8 5b f2 ff ff       	callq  402557 <panic>
  4032fc:	c6 45 eb 00          	movb   $0x0,-0x15(%rbp)
  403300:	8b 05 a2 a8 21 00    	mov    0x21a8a2(%rip),%eax        # 61dba8 <srcMode>
  403306:	83 f8 02             	cmp    $0x2,%eax
  403309:	0f 84 db 00 00 00    	je     4033ea <uncompress+0x126>
  40330f:	83 f8 03             	cmp    $0x3,%eax
  403312:	74 2c                	je     403340 <uncompress+0x7c>
  403314:	83 f8 01             	cmp    $0x1,%eax
  403317:	0f 85 f3 00 00 00    	jne    403410 <uncompress+0x14c>
  40331d:	be ca 95 41 00       	mov    $0x4195ca,%esi
  403322:	bf e0 df 61 00       	mov    $0x61dfe0,%edi
  403327:	e8 c5 f4 ff ff       	callq  4027f1 <copyFileName>
  40332c:	be d2 95 41 00       	mov    $0x4195d2,%esi
  403331:	bf c0 db 61 00       	mov    $0x61dbc0,%edi
  403336:	e8 b6 f4 ff ff       	callq  4027f1 <copyFileName>
  40333b:	e9 d0 00 00 00       	jmpq   403410 <uncompress+0x14c>
  403340:	48 8b 85 38 ff ff ff 	mov    -0xc8(%rbp),%rax
  403347:	48 89 c6             	mov    %rax,%rsi
  40334a:	bf e0 df 61 00       	mov    $0x61dfe0,%edi
  40334f:	e8 9d f4 ff ff       	callq  4027f1 <copyFileName>
  403354:	48 8b 85 38 ff ff ff 	mov    -0xc8(%rbp),%rax
  40335b:	48 89 c6             	mov    %rax,%rsi
  40335e:	bf c0 db 61 00       	mov    $0x61dbc0,%edi
  403363:	e8 89 f4 ff ff       	callq  4027f1 <copyFileName>
  403368:	c7 45 ec 00 00 00 00 	movl   $0x0,-0x14(%rbp)
  40336f:	eb 2f                	jmp    4033a0 <uncompress+0xdc>
  403371:	8b 45 ec             	mov    -0x14(%rbp),%eax
  403374:	48 98                	cltq   
  403376:	48 8b 14 c5 c0 c5 61 	mov    0x61c5c0(,%rax,8),%rdx
  40337d:	00 
  40337e:	8b 45 ec             	mov    -0x14(%rbp),%eax
  403381:	48 98                	cltq   
  403383:	48 8b 04 c5 a0 c5 61 	mov    0x61c5a0(,%rax,8),%rax
  40338a:	00 
  40338b:	48 89 c6             	mov    %rax,%rsi
  40338e:	bf c0 db 61 00       	mov    $0x61dbc0,%edi
  403393:	e8 5e f7 ff ff       	callq  402af6 <mapSuffix>
  403398:	84 c0                	test   %al,%al
  40339a:	75 73                	jne    40340f <uncompress+0x14b>
  40339c:	83 45 ec 01          	addl   $0x1,-0x14(%rbp)
  4033a0:	83 7d ec 03          	cmpl   $0x3,-0x14(%rbp)
  4033a4:	7e cb                	jle    403371 <uncompress+0xad>
  4033a6:	c6 45 eb 01          	movb   $0x1,-0x15(%rbp)
  4033aa:	b8 c0 db 61 00       	mov    $0x61dbc0,%eax
  4033af:	48 c7 85 30 ff ff ff 	movq   $0xffffffffffffffff,-0xd0(%rbp)
  4033b6:	ff ff ff ff 
  4033ba:	48 89 c2             	mov    %rax,%rdx
  4033bd:	b8 00 00 00 00       	mov    $0x0,%eax
  4033c2:	48 8b 8d 30 ff ff ff 	mov    -0xd0(%rbp),%rcx
  4033c9:	48 89 d7             	mov    %rdx,%rdi
  4033cc:	f2 ae                	repnz scas %es:(%rdi),%al
  4033ce:	48 89 c8             	mov    %rcx,%rax
  4033d1:	48 f7 d0             	not    %rax
  4033d4:	48 83 e8 01          	sub    $0x1,%rax
  4033d8:	48 05 c0 db 61 00    	add    $0x61dbc0,%rax
  4033de:	c7 00 2e 6f 75 74    	movl   $0x74756f2e,(%rax)
  4033e4:	c6 40 04 00          	movb   $0x0,0x4(%rax)
  4033e8:	eb 26                	jmp    403410 <uncompress+0x14c>
  4033ea:	48 8b 85 38 ff ff ff 	mov    -0xc8(%rbp),%rax
  4033f1:	48 89 c6             	mov    %rax,%rsi
  4033f4:	bf e0 df 61 00       	mov    $0x61dfe0,%edi
  4033f9:	e8 f3 f3 ff ff       	callq  4027f1 <copyFileName>
  4033fe:	be d2 95 41 00       	mov    $0x4195d2,%esi
  403403:	bf c0 db 61 00       	mov    $0x61dbc0,%edi
  403408:	e8 e4 f3 ff ff       	callq  4027f1 <copyFileName>
  40340d:	eb 01                	jmp    403410 <uncompress+0x14c>
  40340f:	90                   	nop
  403410:	8b 05 92 a7 21 00    	mov    0x21a792(%rip),%eax        # 61dba8 <srcMode>
  403416:	83 f8 01             	cmp    $0x1,%eax
  403419:	74 4d                	je     403468 <uncompress+0x1a4>
  40341b:	bf e0 df 61 00       	mov    $0x61dfe0,%edi
  403420:	e8 4f f6 ff ff       	callq  402a74 <containsDubiousChars>
  403425:	84 c0                	test   %al,%al
  403427:	74 3f                	je     403468 <uncompress+0x1a4>
  403429:	0f b6 05 88 a7 21 00 	movzbl 0x21a788(%rip),%eax        # 61dbb8 <noisy>
  403430:	84 c0                	test   %al,%al
  403432:	74 25                	je     403459 <uncompress+0x195>
  403434:	48 8b 15 bd af 21 00 	mov    0x21afbd(%rip),%rdx        # 61e3f8 <progName>
  40343b:	48 8b 05 6e 9e 21 00 	mov    0x219e6e(%rip),%rax        # 61d2b0 <stderr@@GLIBC_2.2.5>
  403442:	b9 e0 df 61 00       	mov    $0x61dfe0,%ecx
  403447:	be e0 95 41 00       	mov    $0x4195e0,%esi
  40344c:	48 89 c7             	mov    %rax,%rdi
  40344f:	b8 00 00 00 00       	mov    $0x0,%eax
  403454:	e8 97 dd ff ff       	callq  4011f0 <fprintf@plt>
  403459:	bf 01 00 00 00       	mov    $0x1,%edi
  40345e:	e8 87 ee ff ff       	callq  4022ea <setExit>
  403463:	e9 02 06 00 00       	jmpq   403a6a <uncompress+0x7a6>
  403468:	8b 05 3a a7 21 00    	mov    0x21a73a(%rip),%eax        # 61dba8 <srcMode>
  40346e:	83 f8 01             	cmp    $0x1,%eax
  403471:	74 56                	je     4034c9 <uncompress+0x205>
  403473:	bf e0 df 61 00       	mov    $0x61dfe0,%edi
  403478:	e8 f8 f3 ff ff       	callq  402875 <fileExists>
  40347d:	84 c0                	test   %al,%al
  40347f:	75 48                	jne    4034c9 <uncompress+0x205>
  403481:	e8 0a dc ff ff       	callq  401090 <__errno_location@plt>
  403486:	8b 00                	mov    (%rax),%eax
  403488:	89 c7                	mov    %eax,%edi
  40348a:	e8 51 de ff ff       	callq  4012e0 <strerror@plt>
  40348f:	48 89 c1             	mov    %rax,%rcx
  403492:	48 8b 15 5f af 21 00 	mov    0x21af5f(%rip),%rdx        # 61e3f8 <progName>
  403499:	48 8b 05 10 9e 21 00 	mov    0x219e10(%rip),%rax        # 61d2b0 <stderr@@GLIBC_2.2.5>
  4034a0:	49 89 c8             	mov    %rcx,%r8
  4034a3:	b9 e0 df 61 00       	mov    $0x61dfe0,%ecx
  4034a8:	be 08 96 41 00       	mov    $0x419608,%esi
  4034ad:	48 89 c7             	mov    %rax,%rdi
  4034b0:	b8 00 00 00 00       	mov    $0x0,%eax
  4034b5:	e8 36 dd ff ff       	callq  4011f0 <fprintf@plt>
  4034ba:	bf 01 00 00 00       	mov    $0x1,%edi
  4034bf:	e8 26 ee ff ff       	callq  4022ea <setExit>
  4034c4:	e9 a1 05 00 00       	jmpq   403a6a <uncompress+0x7a6>
  4034c9:	8b 05 d9 a6 21 00    	mov    0x21a6d9(%rip),%eax        # 61dba8 <srcMode>
  4034cf:	83 f8 03             	cmp    $0x3,%eax
  4034d2:	74 0b                	je     4034df <uncompress+0x21b>
  4034d4:	8b 05 ce a6 21 00    	mov    0x21a6ce(%rip),%eax        # 61dba8 <srcMode>
  4034da:	83 f8 02             	cmp    $0x2,%eax
  4034dd:	75 5a                	jne    403539 <uncompress+0x275>
  4034df:	48 8d 85 40 ff ff ff 	lea    -0xc0(%rbp),%rax
  4034e6:	48 89 c6             	mov    %rax,%rsi
  4034e9:	bf e0 df 61 00       	mov    $0x61dfe0,%edi
  4034ee:	e8 1d 51 01 00       	callq  418610 <__stat>
  4034f3:	8b 85 58 ff ff ff    	mov    -0xa8(%rbp),%eax
  4034f9:	25 00 f0 00 00       	and    $0xf000,%eax
  4034fe:	3d 00 40 00 00       	cmp    $0x4000,%eax
  403503:	75 34                	jne    403539 <uncompress+0x275>
  403505:	48 8b 15 ec ae 21 00 	mov    0x21aeec(%rip),%rdx        # 61e3f8 <progName>
  40350c:	48 8b 05 9d 9d 21 00 	mov    0x219d9d(%rip),%rax        # 61d2b0 <stderr@@GLIBC_2.2.5>
  403513:	b9 e0 df 61 00       	mov    $0x61dfe0,%ecx
  403518:	be 60 96 41 00       	mov    $0x419660,%esi
  40351d:	48 89 c7             	mov    %rax,%rdi
  403520:	b8 00 00 00 00       	mov    $0x0,%eax
  403525:	e8 c6 dc ff ff       	callq  4011f0 <fprintf@plt>
  40352a:	bf 01 00 00 00       	mov    $0x1,%edi
  40352f:	e8 b6 ed ff ff       	callq  4022ea <setExit>
  403534:	e9 31 05 00 00       	jmpq   403a6a <uncompress+0x7a6>
  403539:	8b 05 69 a6 21 00    	mov    0x21a669(%rip),%eax        # 61dba8 <srcMode>
  40353f:	83 f8 03             	cmp    $0x3,%eax
  403542:	75 58                	jne    40359c <uncompress+0x2d8>
  403544:	0f b6 05 a0 ae 21 00 	movzbl 0x21aea0(%rip),%eax        # 61e3eb <forceOverwrite>
  40354b:	84 c0                	test   %al,%al
  40354d:	75 4d                	jne    40359c <uncompress+0x2d8>
  40354f:	bf e0 df 61 00       	mov    $0x61dfe0,%edi
  403554:	e8 c8 f3 ff ff       	callq  402921 <notAStandardFile>
  403559:	84 c0                	test   %al,%al
  40355b:	74 3f                	je     40359c <uncompress+0x2d8>
  40355d:	0f b6 05 54 a6 21 00 	movzbl 0x21a654(%rip),%eax        # 61dbb8 <noisy>
  403564:	84 c0                	test   %al,%al
  403566:	74 25                	je     40358d <uncompress+0x2c9>
  403568:	48 8b 15 89 ae 21 00 	mov    0x21ae89(%rip),%rdx        # 61e3f8 <progName>
  40356f:	48 8b 05 3a 9d 21 00 	mov    0x219d3a(%rip),%rax        # 61d2b0 <stderr@@GLIBC_2.2.5>
  403576:	b9 e0 df 61 00       	mov    $0x61dfe0,%ecx
  40357b:	be 88 96 41 00       	mov    $0x419688,%esi
  403580:	48 89 c7             	mov    %rax,%rdi
  403583:	b8 00 00 00 00       	mov    $0x0,%eax
  403588:	e8 63 dc ff ff       	callq  4011f0 <fprintf@plt>
  40358d:	bf 01 00 00 00       	mov    $0x1,%edi
  403592:	e8 53 ed ff ff       	callq  4022ea <setExit>
  403597:	e9 ce 04 00 00       	jmpq   403a6a <uncompress+0x7a6>
  40359c:	80 7d eb 00          	cmpb   $0x0,-0x15(%rbp)
  4035a0:	74 36                	je     4035d8 <uncompress+0x314>
  4035a2:	0f b6 05 0f a6 21 00 	movzbl 0x21a60f(%rip),%eax        # 61dbb8 <noisy>
  4035a9:	84 c0                	test   %al,%al
  4035ab:	74 2b                	je     4035d8 <uncompress+0x314>
  4035ad:	48 8b 15 44 ae 21 00 	mov    0x21ae44(%rip),%rdx        # 61e3f8 <progName>
  4035b4:	48 8b 05 f5 9c 21 00 	mov    0x219cf5(%rip),%rax        # 61d2b0 <stderr@@GLIBC_2.2.5>
  4035bb:	41 b8 c0 db 61 00    	mov    $0x61dbc0,%r8d
  4035c1:	b9 e0 df 61 00       	mov    $0x61dfe0,%ecx
  4035c6:	be c8 97 41 00       	mov    $0x4197c8,%esi
  4035cb:	48 89 c7             	mov    %rax,%rdi
  4035ce:	b8 00 00 00 00       	mov    $0x0,%eax
  4035d3:	e8 18 dc ff ff       	callq  4011f0 <fprintf@plt>
  4035d8:	8b 05 ca a5 21 00    	mov    0x21a5ca(%rip),%eax        # 61dba8 <srcMode>
  4035de:	83 f8 03             	cmp    $0x3,%eax
  4035e1:	75 59                	jne    40363c <uncompress+0x378>
  4035e3:	bf c0 db 61 00       	mov    $0x61dbc0,%edi
  4035e8:	e8 88 f2 ff ff       	callq  402875 <fileExists>
  4035ed:	84 c0                	test   %al,%al
  4035ef:	74 4b                	je     40363c <uncompress+0x378>
  4035f1:	0f b6 05 f3 ad 21 00 	movzbl 0x21adf3(%rip),%eax        # 61e3eb <forceOverwrite>
  4035f8:	84 c0                	test   %al,%al
  4035fa:	74 0c                	je     403608 <uncompress+0x344>
  4035fc:	bf c0 db 61 00       	mov    $0x61dbc0,%edi
  403601:	e8 aa da ff ff       	callq  4010b0 <remove@plt>
  403606:	eb 34                	jmp    40363c <uncompress+0x378>
  403608:	48 8b 15 e9 ad 21 00 	mov    0x21ade9(%rip),%rdx        # 61e3f8 <progName>
  40360f:	48 8b 05 9a 9c 21 00 	mov    0x219c9a(%rip),%rax        # 61d2b0 <stderr@@GLIBC_2.2.5>
  403616:	b9 c0 db 61 00       	mov    $0x61dbc0,%ecx
  40361b:	be b8 96 41 00       	mov    $0x4196b8,%esi
  403620:	48 89 c7             	mov    %rax,%rdi
  403623:	b8 00 00 00 00       	mov    $0x0,%eax
  403628:	e8 c3 db ff ff       	callq  4011f0 <fprintf@plt>
  40362d:	bf 01 00 00 00       	mov    $0x1,%edi
  403632:	e8 b3 ec ff ff       	callq  4022ea <setExit>
  403637:	e9 2e 04 00 00       	jmpq   403a6a <uncompress+0x7a6>
  40363c:	8b 05 66 a5 21 00    	mov    0x21a566(%rip),%eax        # 61dba8 <srcMode>
  403642:	83 f8 03             	cmp    $0x3,%eax
  403645:	75 6a                	jne    4036b1 <uncompress+0x3ed>
  403647:	0f b6 05 9d ad 21 00 	movzbl 0x21ad9d(%rip),%eax        # 61e3eb <forceOverwrite>
  40364e:	84 c0                	test   %al,%al
  403650:	75 5f                	jne    4036b1 <uncompress+0x3ed>
  403652:	bf e0 df 61 00       	mov    $0x61dfe0,%edi
  403657:	e8 20 f3 ff ff       	callq  40297c <countHardLinks>
  40365c:	89 45 e4             	mov    %eax,-0x1c(%rbp)
  40365f:	83 7d e4 00          	cmpl   $0x0,-0x1c(%rbp)
  403663:	7e 4c                	jle    4036b1 <uncompress+0x3ed>
  403665:	83 7d e4 01          	cmpl   $0x1,-0x1c(%rbp)
  403669:	7e 07                	jle    403672 <uncompress+0x3ae>
  40366b:	b8 dc 96 41 00       	mov    $0x4196dc,%eax
  403670:	eb 05                	jmp    403677 <uncompress+0x3b3>
  403672:	b8 af 95 41 00       	mov    $0x4195af,%eax
  403677:	48 8b 15 7a ad 21 00 	mov    0x21ad7a(%rip),%rdx        # 61e3f8 <progName>
  40367e:	48 8b 3d 2b 9c 21 00 	mov    0x219c2b(%rip),%rdi        # 61d2b0 <stderr@@GLIBC_2.2.5>
  403685:	8b 4d e4             	mov    -0x1c(%rbp),%ecx
  403688:	49 89 c1             	mov    %rax,%r9
  40368b:	41 89 c8             	mov    %ecx,%r8d
  40368e:	b9 e0 df 61 00       	mov    $0x61dfe0,%ecx
  403693:	be e0 96 41 00       	mov    $0x4196e0,%esi
  403698:	b8 00 00 00 00       	mov    $0x0,%eax
  40369d:	e8 4e db ff ff       	callq  4011f0 <fprintf@plt>
  4036a2:	bf 01 00 00 00       	mov    $0x1,%edi
  4036a7:	e8 3e ec ff ff       	callq  4022ea <setExit>
  4036ac:	e9 b9 03 00 00       	jmpq   403a6a <uncompress+0x7a6>
  4036b1:	8b 05 f1 a4 21 00    	mov    0x21a4f1(%rip),%eax        # 61dba8 <srcMode>
  4036b7:	83 f8 03             	cmp    $0x3,%eax
  4036ba:	75 0a                	jne    4036c6 <uncompress+0x402>
  4036bc:	bf e0 df 61 00       	mov    $0x61dfe0,%edi
  4036c1:	e8 fd f2 ff ff       	callq  4029c3 <saveInputFileMetaInfo>
  4036c6:	8b 05 dc a4 21 00    	mov    0x21a4dc(%rip),%eax        # 61dba8 <srcMode>
  4036cc:	83 f8 02             	cmp    $0x2,%eax
  4036cf:	0f 84 9c 00 00 00    	je     403771 <uncompress+0x4ad>
  4036d5:	83 f8 03             	cmp    $0x3,%eax
  4036d8:	0f 84 17 01 00 00    	je     4037f5 <uncompress+0x531>
  4036de:	83 f8 01             	cmp    $0x1,%eax
  4036e1:	0f 85 f8 01 00 00    	jne    4038df <uncompress+0x61b>
  4036e7:	48 8b 05 ba 9b 21 00 	mov    0x219bba(%rip),%rax        # 61d2a8 <stdin@@GLIBC_2.2.5>
  4036ee:	48 89 45 f8          	mov    %rax,-0x8(%rbp)
  4036f2:	48 8b 05 a7 9b 21 00 	mov    0x219ba7(%rip),%rax        # 61d2a0 <stdout@@GLIBC_2.2.5>
  4036f9:	48 89 45 f0          	mov    %rax,-0x10(%rbp)
  4036fd:	48 8b 05 a4 9b 21 00 	mov    0x219ba4(%rip),%rax        # 61d2a8 <stdin@@GLIBC_2.2.5>
  403704:	48 89 c7             	mov    %rax,%rdi
  403707:	e8 f4 da ff ff       	callq  401200 <fileno@plt>
  40370c:	89 c7                	mov    %eax,%edi
  40370e:	e8 ed d9 ff ff       	callq  401100 <isatty@plt>
  403713:	85 c0                	test   %eax,%eax
  403715:	0f 84 ce 01 00 00    	je     4038e9 <uncompress+0x625>
  40371b:	48 8b 15 d6 ac 21 00 	mov    0x21acd6(%rip),%rdx        # 61e3f8 <progName>
  403722:	48 8b 05 87 9b 21 00 	mov    0x219b87(%rip),%rax        # 61d2b0 <stderr@@GLIBC_2.2.5>
  403729:	be 00 98 41 00       	mov    $0x419800,%esi
  40372e:	48 89 c7             	mov    %rax,%rdi
  403731:	b8 00 00 00 00       	mov    $0x0,%eax
  403736:	e8 b5 da ff ff       	callq  4011f0 <fprintf@plt>
  40373b:	48 8b 0d b6 ac 21 00 	mov    0x21acb6(%rip),%rcx        # 61e3f8 <progName>
  403742:	48 8b 15 af ac 21 00 	mov    0x21acaf(%rip),%rdx        # 61e3f8 <progName>
  403749:	48 8b 05 60 9b 21 00 	mov    0x219b60(%rip),%rax        # 61d2b0 <stderr@@GLIBC_2.2.5>
  403750:	be 40 97 41 00       	mov    $0x419740,%esi
  403755:	48 89 c7             	mov    %rax,%rdi
  403758:	b8 00 00 00 00       	mov    $0x0,%eax
  40375d:	e8 8e da ff ff       	callq  4011f0 <fprintf@plt>
  403762:	bf 01 00 00 00       	mov    $0x1,%edi
  403767:	e8 7e eb ff ff       	callq  4022ea <setExit>
  40376c:	e9 f9 02 00 00       	jmpq   403a6a <uncompress+0x7a6>
  403771:	be 98 95 41 00       	mov    $0x419598,%esi
  403776:	bf e0 df 61 00       	mov    $0x61dfe0,%edi
  40377b:	e8 10 db ff ff       	callq  401290 <fopen@plt>
  403780:	48 89 45 f8          	mov    %rax,-0x8(%rbp)
  403784:	48 8b 05 15 9b 21 00 	mov    0x219b15(%rip),%rax        # 61d2a0 <stdout@@GLIBC_2.2.5>
  40378b:	48 89 45 f0          	mov    %rax,-0x10(%rbp)
  40378f:	48 83 7d f8 00       	cmpq   $0x0,-0x8(%rbp)
  403794:	0f 85 52 01 00 00    	jne    4038ec <uncompress+0x628>
  40379a:	e8 f1 d8 ff ff       	callq  401090 <__errno_location@plt>
  40379f:	8b 00                	mov    (%rax),%eax
  4037a1:	89 c7                	mov    %eax,%edi
  4037a3:	e8 38 db ff ff       	callq  4012e0 <strerror@plt>
  4037a8:	48 89 c1             	mov    %rax,%rcx
  4037ab:	48 8b 15 46 ac 21 00 	mov    0x21ac46(%rip),%rdx        # 61e3f8 <progName>
  4037b2:	48 8b 05 f7 9a 21 00 	mov    0x219af7(%rip),%rax        # 61d2b0 <stderr@@GLIBC_2.2.5>
  4037b9:	49 89 c8             	mov    %rcx,%r8
  4037bc:	b9 e0 df 61 00       	mov    $0x61dfe0,%ecx
  4037c1:	be 38 98 41 00       	mov    $0x419838,%esi
  4037c6:	48 89 c7             	mov    %rax,%rdi
  4037c9:	b8 00 00 00 00       	mov    $0x0,%eax
  4037ce:	e8 1d da ff ff       	callq  4011f0 <fprintf@plt>
  4037d3:	48 83 7d f8 00       	cmpq   $0x0,-0x8(%rbp)
  4037d8:	74 0c                	je     4037e6 <uncompress+0x522>
  4037da:	48 8b 45 f8          	mov    -0x8(%rbp),%rax
  4037de:	48 89 c7             	mov    %rax,%rdi
  4037e1:	e8 3a d9 ff ff       	callq  401120 <fclose@plt>
  4037e6:	bf 01 00 00 00       	mov    $0x1,%edi
  4037eb:	e8 fa ea ff ff       	callq  4022ea <setExit>
  4037f0:	e9 75 02 00 00       	jmpq   403a6a <uncompress+0x7a6>
  4037f5:	be 98 95 41 00       	mov    $0x419598,%esi
  4037fa:	bf e0 df 61 00       	mov    $0x61dfe0,%edi
  4037ff:	e8 8c da ff ff       	callq  401290 <fopen@plt>
  403804:	48 89 45 f8          	mov    %rax,-0x8(%rbp)
  403808:	be 62 97 41 00       	mov    $0x419762,%esi
  40380d:	bf c0 db 61 00       	mov    $0x61dbc0,%edi
  403812:	e8 a3 f0 ff ff       	callq  4028ba <fopen_output_safely>
  403817:	48 89 45 f0          	mov    %rax,-0x10(%rbp)
  40381b:	48 83 7d f0 00       	cmpq   $0x0,-0x10(%rbp)
  403820:	75 5b                	jne    40387d <uncompress+0x5b9>
  403822:	e8 69 d8 ff ff       	callq  401090 <__errno_location@plt>
  403827:	8b 00                	mov    (%rax),%eax
  403829:	89 c7                	mov    %eax,%edi
  40382b:	e8 b0 da ff ff       	callq  4012e0 <strerror@plt>
  403830:	48 89 c1             	mov    %rax,%rcx
  403833:	48 8b 15 be ab 21 00 	mov    0x21abbe(%rip),%rdx        # 61e3f8 <progName>
  40383a:	48 8b 05 6f 9a 21 00 	mov    0x219a6f(%rip),%rax        # 61d2b0 <stderr@@GLIBC_2.2.5>
  403841:	49 89 c8             	mov    %rcx,%r8
  403844:	b9 c0 db 61 00       	mov    $0x61dbc0,%ecx
  403849:	be 68 97 41 00       	mov    $0x419768,%esi
  40384e:	48 89 c7             	mov    %rax,%rdi
  403851:	b8 00 00 00 00       	mov    $0x0,%eax
  403856:	e8 95 d9 ff ff       	callq  4011f0 <fprintf@plt>
  40385b:	48 83 7d f8 00       	cmpq   $0x0,-0x8(%rbp)
  403860:	74 0c                	je     40386e <uncompress+0x5aa>
  403862:	48 8b 45 f8          	mov    -0x8(%rbp),%rax
  403866:	48 89 c7             	mov    %rax,%rdi
  403869:	e8 b2 d8 ff ff       	callq  401120 <fclose@plt>
  40386e:	bf 01 00 00 00       	mov    $0x1,%edi
  403873:	e8 72 ea ff ff       	callq  4022ea <setExit>
  403878:	e9 ed 01 00 00       	jmpq   403a6a <uncompress+0x7a6>
  40387d:	48 83 7d f8 00       	cmpq   $0x0,-0x8(%rbp)
  403882:	75 6b                	jne    4038ef <uncompress+0x62b>
  403884:	e8 07 d8 ff ff       	callq  401090 <__errno_location@plt>
  403889:	8b 00                	mov    (%rax),%eax
  40388b:	89 c7                	mov    %eax,%edi
  40388d:	e8 4e da ff ff       	callq  4012e0 <strerror@plt>
  403892:	48 89 c1             	mov    %rax,%rcx
  403895:	48 8b 15 5c ab 21 00 	mov    0x21ab5c(%rip),%rdx        # 61e3f8 <progName>
  40389c:	48 8b 05 0d 9a 21 00 	mov    0x219a0d(%rip),%rax        # 61d2b0 <stderr@@GLIBC_2.2.5>
  4038a3:	49 89 c8             	mov    %rcx,%r8
  4038a6:	b9 e0 df 61 00       	mov    $0x61dfe0,%ecx
  4038ab:	be 08 96 41 00       	mov    $0x419608,%esi
  4038b0:	48 89 c7             	mov    %rax,%rdi
  4038b3:	b8 00 00 00 00       	mov    $0x0,%eax
  4038b8:	e8 33 d9 ff ff       	callq  4011f0 <fprintf@plt>
  4038bd:	48 83 7d f0 00       	cmpq   $0x0,-0x10(%rbp)
  4038c2:	74 0c                	je     4038d0 <uncompress+0x60c>
  4038c4:	48 8b 45 f0          	mov    -0x10(%rbp),%rax
  4038c8:	48 89 c7             	mov    %rax,%rdi
  4038cb:	e8 50 d8 ff ff       	callq  401120 <fclose@plt>
  4038d0:	bf 01 00 00 00       	mov    $0x1,%edi
  4038d5:	e8 10 ea ff ff       	callq  4022ea <setExit>
  4038da:	e9 8b 01 00 00       	jmpq   403a6a <uncompress+0x7a6>
  4038df:	bf 5a 98 41 00       	mov    $0x41985a,%edi
  4038e4:	e8 6e ec ff ff       	callq  402557 <panic>
  4038e9:	90                   	nop
  4038ea:	eb 04                	jmp    4038f0 <uncompress+0x62c>
  4038ec:	90                   	nop
  4038ed:	eb 01                	jmp    4038f0 <uncompress+0x62c>
  4038ef:	90                   	nop
  4038f0:	8b 05 76 9e 21 00    	mov    0x219e76(%rip),%eax        # 61d76c <verbosity>
  4038f6:	85 c0                	test   %eax,%eax
  4038f8:	7e 37                	jle    403931 <uncompress+0x66d>
  4038fa:	48 8b 05 af 99 21 00 	mov    0x2199af(%rip),%rax        # 61d2b0 <stderr@@GLIBC_2.2.5>
  403901:	ba e0 df 61 00       	mov    $0x61dfe0,%edx
  403906:	be a4 97 41 00       	mov    $0x4197a4,%esi
  40390b:	48 89 c7             	mov    %rax,%rdi
  40390e:	b8 00 00 00 00       	mov    $0x0,%eax
  403913:	e8 d8 d8 ff ff       	callq  4011f0 <fprintf@plt>
  403918:	bf e0 df 61 00       	mov    $0x61dfe0,%edi
  40391d:	e8 62 ee ff ff       	callq  402784 <pad>
  403922:	48 8b 05 87 99 21 00 	mov    0x219987(%rip),%rax        # 61d2b0 <stderr@@GLIBC_2.2.5>
  403929:	48 89 c7             	mov    %rax,%rdi
  40392c:	e8 ff d8 ff ff       	callq  401230 <fflush@plt>
  403931:	48 8b 45 f0          	mov    -0x10(%rbp),%rax
  403935:	48 89 05 5c a2 21 00 	mov    %rax,0x21a25c(%rip)        # 61db98 <outputHandleJustInCase>
  40393c:	c6 05 a9 aa 21 00 01 	movb   $0x1,0x21aaa9(%rip)        # 61e3ec <deleteOutputOnInterrupt>
  403943:	48 8b 55 f0          	mov    -0x10(%rbp),%rdx
  403947:	48 8b 45 f8          	mov    -0x8(%rbp),%rax
  40394b:	48 89 d6             	mov    %rdx,%rsi
  40394e:	48 89 c7             	mov    %rax,%rdi
  403951:	e8 9e e1 ff ff       	callq  401af4 <uncompressStream>
  403956:	88 45 e3             	mov    %al,-0x1d(%rbp)
  403959:	48 c7 05 34 a2 21 00 	movq   $0x0,0x21a234(%rip)        # 61db98 <outputHandleJustInCase>
  403960:	00 00 00 00 
  403964:	80 7d e3 00          	cmpb   $0x0,-0x1d(%rbp)
  403968:	74 3f                	je     4039a9 <uncompress+0x6e5>
  40396a:	8b 05 38 a2 21 00    	mov    0x21a238(%rip),%eax        # 61dba8 <srcMode>
  403970:	83 f8 03             	cmp    $0x3,%eax
  403973:	75 65                	jne    4039da <uncompress+0x716>
  403975:	bf c0 db 61 00       	mov    $0x61dbc0,%edi
  40397a:	e8 71 f0 ff ff       	callq  4029f0 <applySavedMetaInfoToOutputFile>
  40397f:	c6 05 66 aa 21 00 00 	movb   $0x0,0x21aa66(%rip)        # 61e3ec <deleteOutputOnInterrupt>
  403986:	0f b6 05 1f a2 21 00 	movzbl 0x21a21f(%rip),%eax        # 61dbac <keepInputFiles>
  40398d:	84 c0                	test   %al,%al
  40398f:	75 49                	jne    4039da <uncompress+0x716>
  403991:	bf e0 df 61 00       	mov    $0x61dfe0,%edi
  403996:	e8 15 d7 ff ff       	callq  4010b0 <remove@plt>
  40399b:	89 45 dc             	mov    %eax,-0x24(%rbp)
  40399e:	83 7d dc 00          	cmpl   $0x0,-0x24(%rbp)
  4039a2:	74 36                	je     4039da <uncompress+0x716>
  4039a4:	e8 77 ec ff ff       	callq  402620 <ioError>
  4039a9:	c6 05 3a aa 21 00 01 	movb   $0x1,0x21aa3a(%rip)        # 61e3ea <unzFailsExist>
  4039b0:	c6 05 35 aa 21 00 00 	movb   $0x0,0x21aa35(%rip)        # 61e3ec <deleteOutputOnInterrupt>
  4039b7:	8b 05 eb a1 21 00    	mov    0x21a1eb(%rip),%eax        # 61dba8 <srcMode>
  4039bd:	83 f8 03             	cmp    $0x3,%eax
  4039c0:	75 18                	jne    4039da <uncompress+0x716>
  4039c2:	bf c0 db 61 00       	mov    $0x61dbc0,%edi
  4039c7:	e8 e4 d6 ff ff       	callq  4010b0 <remove@plt>
  4039cc:	89 45 d8             	mov    %eax,-0x28(%rbp)
  4039cf:	83 7d d8 00          	cmpl   $0x0,-0x28(%rbp)
  4039d3:	74 05                	je     4039da <uncompress+0x716>
  4039d5:	e8 46 ec ff ff       	callq  402620 <ioError>
  4039da:	c6 05 0b aa 21 00 00 	movb   $0x0,0x21aa0b(%rip)        # 61e3ec <deleteOutputOnInterrupt>
  4039e1:	80 7d e3 00          	cmpb   $0x0,-0x1d(%rbp)
  4039e5:	74 2a                	je     403a11 <uncompress+0x74d>
  4039e7:	8b 05 7f 9d 21 00    	mov    0x219d7f(%rip),%eax        # 61d76c <verbosity>
  4039ed:	85 c0                	test   %eax,%eax
  4039ef:	7e 79                	jle    403a6a <uncompress+0x7a6>
  4039f1:	48 8b 05 b8 98 21 00 	mov    0x2198b8(%rip),%rax        # 61d2b0 <stderr@@GLIBC_2.2.5>
  4039f8:	48 89 c1             	mov    %rax,%rcx
  4039fb:	ba 05 00 00 00       	mov    $0x5,%edx
  403a00:	be 01 00 00 00       	mov    $0x1,%esi
  403a05:	bf 72 98 41 00       	mov    $0x419872,%edi
  403a0a:	e8 c1 d8 ff ff       	callq  4012d0 <fwrite@plt>
  403a0f:	eb 59                	jmp    403a6a <uncompress+0x7a6>
  403a11:	bf 02 00 00 00       	mov    $0x2,%edi
  403a16:	e8 cf e8 ff ff       	callq  4022ea <setExit>
  403a1b:	8b 05 4b 9d 21 00    	mov    0x219d4b(%rip),%eax        # 61d76c <verbosity>
  403a21:	85 c0                	test   %eax,%eax
  403a23:	7e 20                	jle    403a45 <uncompress+0x781>
  403a25:	48 8b 05 84 98 21 00 	mov    0x219884(%rip),%rax        # 61d2b0 <stderr@@GLIBC_2.2.5>
  403a2c:	48 89 c1             	mov    %rax,%rcx
  403a2f:	ba 12 00 00 00       	mov    $0x12,%edx
  403a34:	be 01 00 00 00       	mov    $0x1,%esi
  403a39:	bf 78 98 41 00       	mov    $0x419878,%edi
  403a3e:	e8 8d d8 ff ff       	callq  4012d0 <fwrite@plt>
  403a43:	eb 25                	jmp    403a6a <uncompress+0x7a6>
  403a45:	48 8b 15 ac a9 21 00 	mov    0x21a9ac(%rip),%rdx        # 61e3f8 <progName>
  403a4c:	48 8b 05 5d 98 21 00 	mov    0x21985d(%rip),%rax        # 61d2b0 <stderr@@GLIBC_2.2.5>
  403a53:	b9 e0 df 61 00       	mov    $0x61dfe0,%ecx
  403a58:	be 8b 98 41 00       	mov    $0x41988b,%esi
  403a5d:	48 89 c7             	mov    %rax,%rdi
  403a60:	b8 00 00 00 00       	mov    $0x0,%eax
  403a65:	e8 86 d7 ff ff       	callq  4011f0 <fprintf@plt>
  403a6a:	c9                   	leaveq 
  403a6b:	c3                   	retq   

0000000000403a6c <testf>:
  403a6c:	55                   	push   %rbp
  403a6d:	48 89 e5             	mov    %rsp,%rbp
  403a70:	48 81 ec b0 00 00 00 	sub    $0xb0,%rsp
  403a77:	48 89 bd 58 ff ff ff 	mov    %rdi,-0xa8(%rbp)
  403a7e:	c6 05 67 a9 21 00 00 	movb   $0x0,0x21a967(%rip)        # 61e3ec <deleteOutputOnInterrupt>
  403a85:	48 83 bd 58 ff ff ff 	cmpq   $0x0,-0xa8(%rbp)
  403a8c:	00 
  403a8d:	75 15                	jne    403aa4 <testf+0x38>
  403a8f:	8b 05 13 a1 21 00    	mov    0x21a113(%rip),%eax        # 61dba8 <srcMode>
  403a95:	83 f8 01             	cmp    $0x1,%eax
  403a98:	74 0a                	je     403aa4 <testf+0x38>
  403a9a:	bf a8 98 41 00       	mov    $0x4198a8,%edi
  403a9f:	e8 b3 ea ff ff       	callq  402557 <panic>
  403aa4:	be ba 98 41 00       	mov    $0x4198ba,%esi
  403aa9:	bf c0 db 61 00       	mov    $0x61dbc0,%edi
  403aae:	e8 3e ed ff ff       	callq  4027f1 <copyFileName>
  403ab3:	8b 05 ef a0 21 00    	mov    0x21a0ef(%rip),%eax        # 61dba8 <srcMode>
  403ab9:	83 f8 02             	cmp    $0x2,%eax
  403abc:	74 31                	je     403aef <testf+0x83>
  403abe:	83 f8 03             	cmp    $0x3,%eax
  403ac1:	74 16                	je     403ad9 <testf+0x6d>
  403ac3:	83 f8 01             	cmp    $0x1,%eax
  403ac6:	75 3c                	jne    403b04 <testf+0x98>
  403ac8:	be ca 95 41 00       	mov    $0x4195ca,%esi
  403acd:	bf e0 df 61 00       	mov    $0x61dfe0,%edi
  403ad2:	e8 1a ed ff ff       	callq  4027f1 <copyFileName>
  403ad7:	eb 2b                	jmp    403b04 <testf+0x98>
  403ad9:	48 8b 85 58 ff ff ff 	mov    -0xa8(%rbp),%rax
  403ae0:	48 89 c6             	mov    %rax,%rsi
  403ae3:	bf e0 df 61 00       	mov    $0x61dfe0,%edi
  403ae8:	e8 04 ed ff ff       	callq  4027f1 <copyFileName>
  403aed:	eb 15                	jmp    403b04 <testf+0x98>
  403aef:	48 8b 85 58 ff ff ff 	mov    -0xa8(%rbp),%rax
  403af6:	48 89 c6             	mov    %rax,%rsi
  403af9:	bf e0 df 61 00       	mov    $0x61dfe0,%edi
  403afe:	e8 ee ec ff ff       	callq  4027f1 <copyFileName>
  403b03:	90                   	nop
  403b04:	8b 05 9e a0 21 00    	mov    0x21a09e(%rip),%eax        # 61dba8 <srcMode>
  403b0a:	83 f8 01             	cmp    $0x1,%eax
  403b0d:	74 4d                	je     403b5c <testf+0xf0>
  403b0f:	bf e0 df 61 00       	mov    $0x61dfe0,%edi
  403b14:	e8 5b ef ff ff       	callq  402a74 <containsDubiousChars>
  403b19:	84 c0                	test   %al,%al
  403b1b:	74 3f                	je     403b5c <testf+0xf0>
  403b1d:	0f b6 05 94 a0 21 00 	movzbl 0x21a094(%rip),%eax        # 61dbb8 <noisy>
  403b24:	84 c0                	test   %al,%al
  403b26:	74 25                	je     403b4d <testf+0xe1>
  403b28:	48 8b 15 c9 a8 21 00 	mov    0x21a8c9(%rip),%rdx        # 61e3f8 <progName>
  403b2f:	48 8b 05 7a 97 21 00 	mov    0x21977a(%rip),%rax        # 61d2b0 <stderr@@GLIBC_2.2.5>
  403b36:	b9 e0 df 61 00       	mov    $0x61dfe0,%ecx
  403b3b:	be e0 95 41 00       	mov    $0x4195e0,%esi
  403b40:	48 89 c7             	mov    %rax,%rdi
  403b43:	b8 00 00 00 00       	mov    $0x0,%eax
  403b48:	e8 a3 d6 ff ff       	callq  4011f0 <fprintf@plt>
  403b4d:	bf 01 00 00 00       	mov    $0x1,%edi
  403b52:	e8 93 e7 ff ff       	callq  4022ea <setExit>
  403b57:	e9 65 02 00 00       	jmpq   403dc1 <testf+0x355>
  403b5c:	8b 05 46 a0 21 00    	mov    0x21a046(%rip),%eax        # 61dba8 <srcMode>
  403b62:	83 f8 01             	cmp    $0x1,%eax
  403b65:	74 56                	je     403bbd <testf+0x151>
  403b67:	bf e0 df 61 00       	mov    $0x61dfe0,%edi
  403b6c:	e8 04 ed ff ff       	callq  402875 <fileExists>
  403b71:	84 c0                	test   %al,%al
  403b73:	75 48                	jne    403bbd <testf+0x151>
  403b75:	e8 16 d5 ff ff       	callq  401090 <__errno_location@plt>
  403b7a:	8b 00                	mov    (%rax),%eax
  403b7c:	89 c7                	mov    %eax,%edi
  403b7e:	e8 5d d7 ff ff       	callq  4012e0 <strerror@plt>
  403b83:	48 89 c1             	mov    %rax,%rcx
  403b86:	48 8b 15 6b a8 21 00 	mov    0x21a86b(%rip),%rdx        # 61e3f8 <progName>
  403b8d:	48 8b 05 1c 97 21 00 	mov    0x21971c(%rip),%rax        # 61d2b0 <stderr@@GLIBC_2.2.5>
  403b94:	49 89 c8             	mov    %rcx,%r8
  403b97:	b9 e0 df 61 00       	mov    $0x61dfe0,%ecx
  403b9c:	be c1 98 41 00       	mov    $0x4198c1,%esi
  403ba1:	48 89 c7             	mov    %rax,%rdi
  403ba4:	b8 00 00 00 00       	mov    $0x0,%eax
  403ba9:	e8 42 d6 ff ff       	callq  4011f0 <fprintf@plt>
  403bae:	bf 01 00 00 00       	mov    $0x1,%edi
  403bb3:	e8 32 e7 ff ff       	callq  4022ea <setExit>
  403bb8:	e9 04 02 00 00       	jmpq   403dc1 <testf+0x355>
  403bbd:	8b 05 e5 9f 21 00    	mov    0x219fe5(%rip),%eax        # 61dba8 <srcMode>
  403bc3:	83 f8 01             	cmp    $0x1,%eax
  403bc6:	74 5a                	je     403c22 <testf+0x1b6>
  403bc8:	48 8d 85 60 ff ff ff 	lea    -0xa0(%rbp),%rax
  403bcf:	48 89 c6             	mov    %rax,%rsi
  403bd2:	bf e0 df 61 00       	mov    $0x61dfe0,%edi
  403bd7:	e8 34 4a 01 00       	callq  418610 <__stat>
  403bdc:	8b 85 78 ff ff ff    	mov    -0x88(%rbp),%eax
  403be2:	25 00 f0 00 00       	and    $0xf000,%eax
  403be7:	3d 00 40 00 00       	cmp    $0x4000,%eax
  403bec:	75 34                	jne    403c22 <testf+0x1b6>
  403bee:	48 8b 15 03 a8 21 00 	mov    0x21a803(%rip),%rdx        # 61e3f8 <progName>
  403bf5:	48 8b 05 b4 96 21 00 	mov    0x2196b4(%rip),%rax        # 61d2b0 <stderr@@GLIBC_2.2.5>
  403bfc:	b9 e0 df 61 00       	mov    $0x61dfe0,%ecx
  403c01:	be 60 96 41 00       	mov    $0x419660,%esi
  403c06:	48 89 c7             	mov    %rax,%rdi
  403c09:	b8 00 00 00 00       	mov    $0x0,%eax
  403c0e:	e8 dd d5 ff ff       	callq  4011f0 <fprintf@plt>
  403c13:	bf 01 00 00 00       	mov    $0x1,%edi
  403c18:	e8 cd e6 ff ff       	callq  4022ea <setExit>
  403c1d:	e9 9f 01 00 00       	jmpq   403dc1 <testf+0x355>
  403c22:	8b 05 80 9f 21 00    	mov    0x219f80(%rip),%eax        # 61dba8 <srcMode>
  403c28:	83 f8 01             	cmp    $0x1,%eax
  403c2b:	74 14                	je     403c41 <testf+0x1d5>
  403c2d:	83 f8 01             	cmp    $0x1,%eax
  403c30:	0f 8c ea 00 00 00    	jl     403d20 <testf+0x2b4>
  403c36:	83 f8 03             	cmp    $0x3,%eax
  403c39:	0f 8f e1 00 00 00    	jg     403d20 <testf+0x2b4>
  403c3f:	eb 7d                	jmp    403cbe <testf+0x252>
  403c41:	48 8b 05 60 96 21 00 	mov    0x219660(%rip),%rax        # 61d2a8 <stdin@@GLIBC_2.2.5>
  403c48:	48 89 c7             	mov    %rax,%rdi
  403c4b:	e8 b0 d5 ff ff       	callq  401200 <fileno@plt>
  403c50:	89 c7                	mov    %eax,%edi
  403c52:	e8 a9 d4 ff ff       	callq  401100 <isatty@plt>
  403c57:	85 c0                	test   %eax,%eax
  403c59:	74 56                	je     403cb1 <testf+0x245>
  403c5b:	48 8b 15 96 a7 21 00 	mov    0x21a796(%rip),%rdx        # 61e3f8 <progName>
  403c62:	48 8b 05 47 96 21 00 	mov    0x219647(%rip),%rax        # 61d2b0 <stderr@@GLIBC_2.2.5>
  403c69:	be 00 98 41 00       	mov    $0x419800,%esi
  403c6e:	48 89 c7             	mov    %rax,%rdi
  403c71:	b8 00 00 00 00       	mov    $0x0,%eax
  403c76:	e8 75 d5 ff ff       	callq  4011f0 <fprintf@plt>
  403c7b:	48 8b 0d 76 a7 21 00 	mov    0x21a776(%rip),%rcx        # 61e3f8 <progName>
  403c82:	48 8b 15 6f a7 21 00 	mov    0x21a76f(%rip),%rdx        # 61e3f8 <progName>
  403c89:	48 8b 05 20 96 21 00 	mov    0x219620(%rip),%rax        # 61d2b0 <stderr@@GLIBC_2.2.5>
  403c90:	be 40 97 41 00       	mov    $0x419740,%esi
  403c95:	48 89 c7             	mov    %rax,%rdi
  403c98:	b8 00 00 00 00       	mov    $0x0,%eax
  403c9d:	e8 4e d5 ff ff       	callq  4011f0 <fprintf@plt>
  403ca2:	bf 01 00 00 00       	mov    $0x1,%edi
  403ca7:	e8 3e e6 ff ff       	callq  4022ea <setExit>
  403cac:	e9 10 01 00 00       	jmpq   403dc1 <testf+0x355>
  403cb1:	48 8b 05 f0 95 21 00 	mov    0x2195f0(%rip),%rax        # 61d2a8 <stdin@@GLIBC_2.2.5>
  403cb8:	48 89 45 f8          	mov    %rax,-0x8(%rbp)
  403cbc:	eb 6d                	jmp    403d2b <testf+0x2bf>
  403cbe:	be 98 95 41 00       	mov    $0x419598,%esi
  403cc3:	bf e0 df 61 00       	mov    $0x61dfe0,%edi
  403cc8:	e8 c3 d5 ff ff       	callq  401290 <fopen@plt>
  403ccd:	48 89 45 f8          	mov    %rax,-0x8(%rbp)
  403cd1:	48 83 7d f8 00       	cmpq   $0x0,-0x8(%rbp)
  403cd6:	75 52                	jne    403d2a <testf+0x2be>
  403cd8:	e8 b3 d3 ff ff       	callq  401090 <__errno_location@plt>
  403cdd:	8b 00                	mov    (%rax),%eax
  403cdf:	89 c7                	mov    %eax,%edi
  403ce1:	e8 fa d5 ff ff       	callq  4012e0 <strerror@plt>
  403ce6:	48 89 c1             	mov    %rax,%rcx
  403ce9:	48 8b 15 08 a7 21 00 	mov    0x21a708(%rip),%rdx        # 61e3f8 <progName>
  403cf0:	48 8b 05 b9 95 21 00 	mov    0x2195b9(%rip),%rax        # 61d2b0 <stderr@@GLIBC_2.2.5>
  403cf7:	49 89 c8             	mov    %rcx,%r8
  403cfa:	b9 e0 df 61 00       	mov    $0x61dfe0,%ecx
  403cff:	be 38 98 41 00       	mov    $0x419838,%esi
  403d04:	48 89 c7             	mov    %rax,%rdi
  403d07:	b8 00 00 00 00       	mov    $0x0,%eax
  403d0c:	e8 df d4 ff ff       	callq  4011f0 <fprintf@plt>
  403d11:	bf 01 00 00 00       	mov    $0x1,%edi
  403d16:	e8 cf e5 ff ff       	callq  4022ea <setExit>
  403d1b:	e9 a1 00 00 00       	jmpq   403dc1 <testf+0x355>
  403d20:	bf df 98 41 00       	mov    $0x4198df,%edi
  403d25:	e8 2d e8 ff ff       	callq  402557 <panic>
  403d2a:	90                   	nop
  403d2b:	8b 05 3b 9a 21 00    	mov    0x219a3b(%rip),%eax        # 61d76c <verbosity>
  403d31:	85 c0                	test   %eax,%eax
  403d33:	7e 37                	jle    403d6c <testf+0x300>
  403d35:	48 8b 05 74 95 21 00 	mov    0x219574(%rip),%rax        # 61d2b0 <stderr@@GLIBC_2.2.5>
  403d3c:	ba e0 df 61 00       	mov    $0x61dfe0,%edx
  403d41:	be a4 97 41 00       	mov    $0x4197a4,%esi
  403d46:	48 89 c7             	mov    %rax,%rdi
  403d49:	b8 00 00 00 00       	mov    $0x0,%eax
  403d4e:	e8 9d d4 ff ff       	callq  4011f0 <fprintf@plt>
  403d53:	bf e0 df 61 00       	mov    $0x61dfe0,%edi
  403d58:	e8 27 ea ff ff       	callq  402784 <pad>
  403d5d:	48 8b 05 4c 95 21 00 	mov    0x21954c(%rip),%rax        # 61d2b0 <stderr@@GLIBC_2.2.5>
  403d64:	48 89 c7             	mov    %rax,%rdi
  403d67:	e8 c4 d4 ff ff       	callq  401230 <fflush@plt>
  403d6c:	48 c7 05 21 9e 21 00 	movq   $0x0,0x219e21(%rip)        # 61db98 <outputHandleJustInCase>
  403d73:	00 00 00 00 
  403d77:	48 8b 45 f8          	mov    -0x8(%rbp),%rax
  403d7b:	48 89 c7             	mov    %rax,%rdi
  403d7e:	e8 09 e2 ff ff       	callq  401f8c <testStream>
  403d83:	88 45 f7             	mov    %al,-0x9(%rbp)
  403d86:	80 7d f7 00          	cmpb   $0x0,-0x9(%rbp)
  403d8a:	74 28                	je     403db4 <testf+0x348>
  403d8c:	8b 05 da 99 21 00    	mov    0x2199da(%rip),%eax        # 61d76c <verbosity>
  403d92:	85 c0                	test   %eax,%eax
  403d94:	7e 1e                	jle    403db4 <testf+0x348>
  403d96:	48 8b 05 13 95 21 00 	mov    0x219513(%rip),%rax        # 61d2b0 <stderr@@GLIBC_2.2.5>
  403d9d:	48 89 c1             	mov    %rax,%rcx
  403da0:	ba 03 00 00 00       	mov    $0x3,%edx
  403da5:	be 01 00 00 00       	mov    $0x1,%esi
  403daa:	bf f2 98 41 00       	mov    $0x4198f2,%edi
  403daf:	e8 1c d5 ff ff       	callq  4012d0 <fwrite@plt>
  403db4:	80 7d f7 00          	cmpb   $0x0,-0x9(%rbp)
  403db8:	75 07                	jne    403dc1 <testf+0x355>
  403dba:	c6 05 09 a2 21 00 01 	movb   $0x1,0x21a209(%rip)        # 61dfca <testFailsExist>
  403dc1:	c9                   	leaveq 
  403dc2:	c3                   	retq   

0000000000403dc3 <license>:
  403dc3:	55                   	push   %rbp
  403dc4:	48 89 e5             	mov    %rsp,%rbp
  403dc7:	e8 47 51 00 00       	callq  408f13 <BZ2_bzlibVersion>
  403dcc:	48 89 c2             	mov    %rax,%rdx
  403dcf:	48 8b 05 da 94 21 00 	mov    0x2194da(%rip),%rax        # 61d2b0 <stderr@@GLIBC_2.2.5>
  403dd6:	be f8 98 41 00       	mov    $0x4198f8,%esi
  403ddb:	48 89 c7             	mov    %rax,%rdi
  403dde:	b8 00 00 00 00       	mov    $0x0,%eax
  403de3:	e8 08 d4 ff ff       	callq  4011f0 <fprintf@plt>
  403de8:	5d                   	pop    %rbp
  403de9:	c3                   	retq   

0000000000403dea <usage>:
  403dea:	55                   	push   %rbp
  403deb:	48 89 e5             	mov    %rsp,%rbp
  403dee:	48 83 ec 10          	sub    $0x10,%rsp
  403df2:	48 89 7d f8          	mov    %rdi,-0x8(%rbp)
  403df6:	e8 18 51 00 00       	callq  408f13 <BZ2_bzlibVersion>
  403dfb:	48 89 c2             	mov    %rax,%rdx
  403dfe:	48 8b 05 ab 94 21 00 	mov    0x2194ab(%rip),%rax        # 61d2b0 <stderr@@GLIBC_2.2.5>
  403e05:	48 8b 4d f8          	mov    -0x8(%rbp),%rcx
  403e09:	be 10 9b 41 00       	mov    $0x419b10,%esi
  403e0e:	48 89 c7             	mov    %rax,%rdi
  403e11:	b8 00 00 00 00       	mov    $0x0,%eax
  403e16:	e8 d5 d3 ff ff       	callq  4011f0 <fprintf@plt>
  403e1b:	c9                   	leaveq 
  403e1c:	c3                   	retq   

0000000000403e1d <redundant>:
  403e1d:	55                   	push   %rbp
  403e1e:	48 89 e5             	mov    %rsp,%rbp
  403e21:	48 83 ec 10          	sub    $0x10,%rsp
  403e25:	48 89 7d f8          	mov    %rdi,-0x8(%rbp)
  403e29:	48 8b 15 c8 a5 21 00 	mov    0x21a5c8(%rip),%rdx        # 61e3f8 <progName>
  403e30:	48 8b 05 79 94 21 00 	mov    0x219479(%rip),%rax        # 61d2b0 <stderr@@GLIBC_2.2.5>
  403e37:	48 8b 4d f8          	mov    -0x8(%rbp),%rcx
  403e3b:	be e0 9f 41 00       	mov    $0x419fe0,%esi
  403e40:	48 89 c7             	mov    %rax,%rdi
  403e43:	b8 00 00 00 00       	mov    $0x0,%eax
  403e48:	e8 a3 d3 ff ff       	callq  4011f0 <fprintf@plt>
  403e4d:	c9                   	leaveq 
  403e4e:	c3                   	retq   

0000000000403e4f <myMalloc>:
  403e4f:	55                   	push   %rbp
  403e50:	48 89 e5             	mov    %rsp,%rbp
  403e53:	48 83 ec 20          	sub    $0x20,%rsp
  403e57:	89 7d ec             	mov    %edi,-0x14(%rbp)
  403e5a:	8b 45 ec             	mov    -0x14(%rbp),%eax
  403e5d:	48 98                	cltq   
  403e5f:	48 89 c7             	mov    %rax,%rdi
  403e62:	e8 b9 d3 ff ff       	callq  401220 <malloc@plt>
  403e67:	48 89 45 f8          	mov    %rax,-0x8(%rbp)
  403e6b:	48 83 7d f8 00       	cmpq   $0x0,-0x8(%rbp)
  403e70:	75 05                	jne    403e77 <myMalloc+0x28>
  403e72:	e8 a1 e8 ff ff       	callq  402718 <outOfMemory>
  403e77:	48 8b 45 f8          	mov    -0x8(%rbp),%rax
  403e7b:	c9                   	leaveq 
  403e7c:	c3                   	retq   

0000000000403e7d <mkCell>:
  403e7d:	55                   	push   %rbp
  403e7e:	48 89 e5             	mov    %rsp,%rbp
  403e81:	48 83 ec 10          	sub    $0x10,%rsp
  403e85:	bf 10 00 00 00       	mov    $0x10,%edi
  403e8a:	e8 c0 ff ff ff       	callq  403e4f <myMalloc>
  403e8f:	48 89 45 f8          	mov    %rax,-0x8(%rbp)
  403e93:	48 8b 45 f8          	mov    -0x8(%rbp),%rax
  403e97:	48 c7 00 00 00 00 00 	movq   $0x0,(%rax)
  403e9e:	48 8b 45 f8          	mov    -0x8(%rbp),%rax
  403ea2:	48 c7 40 08 00 00 00 	movq   $0x0,0x8(%rax)
  403ea9:	00 
  403eaa:	48 8b 45 f8          	mov    -0x8(%rbp),%rax
  403eae:	c9                   	leaveq 
  403eaf:	c3                   	retq   

0000000000403eb0 <snocString>:
  403eb0:	55                   	push   %rbp
  403eb1:	48 89 e5             	mov    %rsp,%rbp
  403eb4:	48 83 ec 20          	sub    $0x20,%rsp
  403eb8:	48 89 7d e8          	mov    %rdi,-0x18(%rbp)
  403ebc:	48 89 75 e0          	mov    %rsi,-0x20(%rbp)
  403ec0:	48 83 7d e8 00       	cmpq   $0x0,-0x18(%rbp)
  403ec5:	75 42                	jne    403f09 <snocString+0x59>
  403ec7:	e8 b1 ff ff ff       	callq  403e7d <mkCell>
  403ecc:	48 89 45 f0          	mov    %rax,-0x10(%rbp)
  403ed0:	48 8b 45 e0          	mov    -0x20(%rbp),%rax
  403ed4:	48 89 c7             	mov    %rax,%rdi
  403ed7:	e8 74 d2 ff ff       	callq  401150 <strlen@plt>
  403edc:	83 c0 05             	add    $0x5,%eax
  403edf:	89 c7                	mov    %eax,%edi
  403ee1:	e8 69 ff ff ff       	callq  403e4f <myMalloc>
  403ee6:	48 8b 55 f0          	mov    -0x10(%rbp),%rdx
  403eea:	48 89 02             	mov    %rax,(%rdx)
  403eed:	48 8b 45 f0          	mov    -0x10(%rbp),%rax
  403ef1:	48 8b 00             	mov    (%rax),%rax
  403ef4:	48 8b 55 e0          	mov    -0x20(%rbp),%rdx
  403ef8:	48 89 d6             	mov    %rdx,%rsi
  403efb:	48 89 c7             	mov    %rax,%rdi
  403efe:	e8 cd d1 ff ff       	callq  4010d0 <strcpy@plt>
  403f03:	48 8b 45 f0          	mov    -0x10(%rbp),%rax
  403f07:	eb 46                	jmp    403f4f <snocString+0x9f>
  403f09:	48 8b 45 e8          	mov    -0x18(%rbp),%rax
  403f0d:	48 89 45 f8          	mov    %rax,-0x8(%rbp)
  403f11:	eb 0c                	jmp    403f1f <snocString+0x6f>
  403f13:	48 8b 45 f8          	mov    -0x8(%rbp),%rax
  403f17:	48 8b 40 08          	mov    0x8(%rax),%rax
  403f1b:	48 89 45 f8          	mov    %rax,-0x8(%rbp)
  403f1f:	48 8b 45 f8          	mov    -0x8(%rbp),%rax
  403f23:	48 8b 40 08          	mov    0x8(%rax),%rax
  403f27:	48 85 c0             	test   %rax,%rax
  403f2a:	75 e7                	jne    403f13 <snocString+0x63>
  403f2c:	48 8b 45 f8          	mov    -0x8(%rbp),%rax
  403f30:	48 8b 40 08          	mov    0x8(%rax),%rax
  403f34:	48 8b 55 e0          	mov    -0x20(%rbp),%rdx
  403f38:	48 89 d6             	mov    %rdx,%rsi
  403f3b:	48 89 c7             	mov    %rax,%rdi
  403f3e:	e8 6d ff ff ff       	callq  403eb0 <snocString>
  403f43:	48 8b 55 f8          	mov    -0x8(%rbp),%rdx
  403f47:	48 89 42 08          	mov    %rax,0x8(%rdx)
  403f4b:	48 8b 45 e8          	mov    -0x18(%rbp),%rax
  403f4f:	c9                   	leaveq 
  403f50:	c3                   	retq   

0000000000403f51 <addFlagsFromEnvVar>:
  403f51:	55                   	push   %rbp
  403f52:	48 89 e5             	mov    %rsp,%rbp
  403f55:	48 83 ec 30          	sub    $0x30,%rsp
  403f59:	48 89 7d d8          	mov    %rdi,-0x28(%rbp)
  403f5d:	48 89 75 d0          	mov    %rsi,-0x30(%rbp)
  403f61:	48 8b 45 d0          	mov    -0x30(%rbp),%rax
  403f65:	48 89 c7             	mov    %rax,%rdi
  403f68:	e8 f3 d0 ff ff       	callq  401060 <getenv@plt>
  403f6d:	48 89 45 e0          	mov    %rax,-0x20(%rbp)
  403f71:	48 83 7d e0 00       	cmpq   $0x0,-0x20(%rbp)
  403f76:	0f 84 31 01 00 00    	je     4040ad <addFlagsFromEnvVar+0x15c>
  403f7c:	48 8b 45 e0          	mov    -0x20(%rbp),%rax
  403f80:	48 89 45 e8          	mov    %rax,-0x18(%rbp)
  403f84:	c7 45 fc 00 00 00 00 	movl   $0x0,-0x4(%rbp)
  403f8b:	eb 01                	jmp    403f8e <addFlagsFromEnvVar+0x3d>
  403f8d:	90                   	nop
  403f8e:	8b 45 fc             	mov    -0x4(%rbp),%eax
  403f91:	48 63 d0             	movslq %eax,%rdx
  403f94:	48 8b 45 e8          	mov    -0x18(%rbp),%rax
  403f98:	48 01 d0             	add    %rdx,%rax
  403f9b:	0f b6 00             	movzbl (%rax),%eax
  403f9e:	84 c0                	test   %al,%al
  403fa0:	0f 84 06 01 00 00    	je     4040ac <addFlagsFromEnvVar+0x15b>
  403fa6:	8b 45 fc             	mov    -0x4(%rbp),%eax
  403fa9:	48 98                	cltq   
  403fab:	48 01 45 e8          	add    %rax,-0x18(%rbp)
  403faf:	c7 45 fc 00 00 00 00 	movl   $0x0,-0x4(%rbp)
  403fb6:	eb 05                	jmp    403fbd <addFlagsFromEnvVar+0x6c>
  403fb8:	48 83 45 e8 01       	addq   $0x1,-0x18(%rbp)
  403fbd:	e8 3e d3 ff ff       	callq  401300 <__ctype_b_loc@plt>
  403fc2:	48 8b 10             	mov    (%rax),%rdx
  403fc5:	48 8b 45 e8          	mov    -0x18(%rbp),%rax
  403fc9:	0f b6 00             	movzbl (%rax),%eax
  403fcc:	48 0f be c0          	movsbq %al,%rax
  403fd0:	48 01 c0             	add    %rax,%rax
  403fd3:	48 01 d0             	add    %rdx,%rax
  403fd6:	0f b7 00             	movzwl (%rax),%eax
  403fd9:	0f b7 c0             	movzwl %ax,%eax
  403fdc:	25 00 20 00 00       	and    $0x2000,%eax
  403fe1:	85 c0                	test   %eax,%eax
  403fe3:	75 d3                	jne    403fb8 <addFlagsFromEnvVar+0x67>
  403fe5:	eb 04                	jmp    403feb <addFlagsFromEnvVar+0x9a>
  403fe7:	83 45 fc 01          	addl   $0x1,-0x4(%rbp)
  403feb:	8b 45 fc             	mov    -0x4(%rbp),%eax
  403fee:	48 63 d0             	movslq %eax,%rdx
  403ff1:	48 8b 45 e8          	mov    -0x18(%rbp),%rax
  403ff5:	48 01 d0             	add    %rdx,%rax
  403ff8:	0f b6 00             	movzbl (%rax),%eax
  403ffb:	84 c0                	test   %al,%al
  403ffd:	74 31                	je     404030 <addFlagsFromEnvVar+0xdf>
  403fff:	e8 fc d2 ff ff       	callq  401300 <__ctype_b_loc@plt>
  404004:	48 8b 00             	mov    (%rax),%rax
  404007:	8b 55 fc             	mov    -0x4(%rbp),%edx
  40400a:	48 63 ca             	movslq %edx,%rcx
  40400d:	48 8b 55 e8          	mov    -0x18(%rbp),%rdx
  404011:	48 01 ca             	add    %rcx,%rdx
  404014:	0f b6 12             	movzbl (%rdx),%edx
  404017:	48 0f be d2          	movsbq %dl,%rdx
  40401b:	48 01 d2             	add    %rdx,%rdx
  40401e:	48 01 d0             	add    %rdx,%rax
  404021:	0f b7 00             	movzwl (%rax),%eax
  404024:	0f b7 c0             	movzwl %ax,%eax
  404027:	25 00 20 00 00       	and    $0x2000,%eax
  40402c:	85 c0                	test   %eax,%eax
  40402e:	74 b7                	je     403fe7 <addFlagsFromEnvVar+0x96>
  404030:	83 7d fc 00          	cmpl   $0x0,-0x4(%rbp)
  404034:	0f 8e 53 ff ff ff    	jle    403f8d <addFlagsFromEnvVar+0x3c>
  40403a:	8b 45 fc             	mov    -0x4(%rbp),%eax
  40403d:	89 45 f4             	mov    %eax,-0xc(%rbp)
  404040:	81 7d f4 00 04 00 00 	cmpl   $0x400,-0xc(%rbp)
  404047:	7e 07                	jle    404050 <addFlagsFromEnvVar+0xff>
  404049:	c7 45 f4 00 04 00 00 	movl   $0x400,-0xc(%rbp)
  404050:	c7 45 f8 00 00 00 00 	movl   $0x0,-0x8(%rbp)
  404057:	eb 1f                	jmp    404078 <addFlagsFromEnvVar+0x127>
  404059:	8b 45 f8             	mov    -0x8(%rbp),%eax
  40405c:	48 63 d0             	movslq %eax,%rdx
  40405f:	48 8b 45 e8          	mov    -0x18(%rbp),%rax
  404063:	48 01 d0             	add    %rdx,%rax
  404066:	0f b6 10             	movzbl (%rax),%edx
  404069:	8b 45 f8             	mov    -0x8(%rbp),%eax
  40406c:	48 98                	cltq   
  40406e:	88 90 80 d7 61 00    	mov    %dl,0x61d780(%rax)
  404074:	83 45 f8 01          	addl   $0x1,-0x8(%rbp)
  404078:	8b 45 f8             	mov    -0x8(%rbp),%eax
  40407b:	3b 45 f4             	cmp    -0xc(%rbp),%eax
  40407e:	7c d9                	jl     404059 <addFlagsFromEnvVar+0x108>
  404080:	8b 45 f4             	mov    -0xc(%rbp),%eax
  404083:	48 98                	cltq   
  404085:	c6 80 80 d7 61 00 00 	movb   $0x0,0x61d780(%rax)
  40408c:	48 8b 45 d8          	mov    -0x28(%rbp),%rax
  404090:	48 8b 00             	mov    (%rax),%rax
  404093:	be 80 d7 61 00       	mov    $0x61d780,%esi
  404098:	48 89 c7             	mov    %rax,%rdi
  40409b:	e8 10 fe ff ff       	callq  403eb0 <snocString>
  4040a0:	48 8b 55 d8          	mov    -0x28(%rbp),%rdx
  4040a4:	48 89 02             	mov    %rax,(%rdx)
  4040a7:	e9 e1 fe ff ff       	jmpq   403f8d <addFlagsFromEnvVar+0x3c>
  4040ac:	90                   	nop
  4040ad:	c9                   	leaveq 
  4040ae:	c3                   	retq   

00000000004040af <main>:
  4040af:	55                   	push   %rbp
  4040b0:	48 89 e5             	mov    %rsp,%rbp
  4040b3:	48 83 ec 40          	sub    $0x40,%rsp
  4040b7:	89 7d cc             	mov    %edi,-0x34(%rbp)
  4040ba:	48 89 75 c0          	mov    %rsi,-0x40(%rbp)
  4040be:	c7 45 fc 00 00 00 00 	movl   $0x0,-0x4(%rbp)
  4040c5:	eb 08                	jmp    4040cf <main+0x20>
  4040c7:	83 7d fc 05          	cmpl   $0x5,-0x4(%rbp)
  4040cb:	83 45 fc 01          	addl   $0x1,-0x4(%rbp)
  4040cf:	83 7d fc 63          	cmpl   $0x63,-0x4(%rbp)
  4040d3:	7e f2                	jle    4040c7 <main+0x18>
  4040d5:	48 c7 05 b8 9a 21 00 	movq   $0x0,0x219ab8(%rip)        # 61db98 <outputHandleJustInCase>
  4040dc:	00 00 00 00 
  4040e0:	c6 05 ad 9a 21 00 00 	movb   $0x0,0x219aad(%rip)        # 61db94 <smallMode>
  4040e7:	c6 05 be 9a 21 00 00 	movb   $0x0,0x219abe(%rip)        # 61dbac <keepInputFiles>
  4040ee:	c6 05 f6 a2 21 00 00 	movb   $0x0,0x21a2f6(%rip)        # 61e3eb <forceOverwrite>
  4040f5:	c6 05 bc 9a 21 00 01 	movb   $0x1,0x219abc(%rip)        # 61dbb8 <noisy>
  4040fc:	c7 05 66 96 21 00 00 	movl   $0x0,0x219666(%rip)        # 61d76c <verbosity>
  404103:	00 00 00 
  404106:	c7 05 a0 9a 21 00 09 	movl   $0x9,0x219aa0(%rip)        # 61dbb0 <blockSize100k>
  40410d:	00 00 00 
  404110:	c6 05 b3 9e 21 00 00 	movb   $0x0,0x219eb3(%rip)        # 61dfca <testFailsExist>
  404117:	c6 05 cc a2 21 00 00 	movb   $0x0,0x21a2cc(%rip)        # 61e3ea <unzFailsExist>
  40411e:	c7 05 78 9a 21 00 00 	movl   $0x0,0x219a78(%rip)        # 61dba0 <numFileNames>
  404125:	00 00 00 
  404128:	c7 05 5e 9a 21 00 00 	movl   $0x0,0x219a5e(%rip)        # 61db90 <numFilesProcessed>
  40412f:	00 00 00 
  404132:	c7 05 50 9a 21 00 1e 	movl   $0x1e,0x219a50(%rip)        # 61db8c <workFactor>
  404139:	00 00 00 
  40413c:	c6 05 a9 a2 21 00 00 	movb   $0x0,0x21a2a9(%rip)        # 61e3ec <deleteOutputOnInterrupt>
  404143:	c7 05 67 9a 21 00 00 	movl   $0x0,0x219a67(%rip)        # 61dbb4 <exitValue>
  40414a:	00 00 00 
  40414d:	c7 45 f8 00 00 00 00 	movl   $0x0,-0x8(%rbp)
  404154:	8b 45 f8             	mov    -0x8(%rbp),%eax
  404157:	89 45 fc             	mov    %eax,-0x4(%rbp)
  40415a:	be 97 26 40 00       	mov    $0x402697,%esi
  40415f:	bf 0b 00 00 00       	mov    $0xb,%edi
  404164:	e8 67 d0 ff ff       	callq  4011d0 <signal@plt>
  404169:	be 97 26 40 00       	mov    $0x402697,%esi
  40416e:	bf 07 00 00 00       	mov    $0x7,%edi
  404173:	e8 58 d0 ff ff       	callq  4011d0 <signal@plt>
  404178:	be ba 98 41 00       	mov    $0x4198ba,%esi
  40417d:	bf e0 df 61 00       	mov    $0x61dfe0,%edi
  404182:	e8 6a e6 ff ff       	callq  4027f1 <copyFileName>
  404187:	be ba 98 41 00       	mov    $0x4198ba,%esi
  40418c:	bf c0 db 61 00       	mov    $0x61dbc0,%edi
  404191:	e8 5b e6 ff ff       	callq  4027f1 <copyFileName>
  404196:	48 8b 45 c0          	mov    -0x40(%rbp),%rax
  40419a:	48 8b 00             	mov    (%rax),%rax
  40419d:	48 89 c6             	mov    %rax,%rsi
  4041a0:	bf 60 d3 61 00       	mov    $0x61d360,%edi
  4041a5:	e8 47 e6 ff ff       	callq  4027f1 <copyFileName>
  4041aa:	48 c7 05 43 a2 21 00 	movq   $0x61d360,0x21a243(%rip)        # 61e3f8 <progName>
  4041b1:	60 d3 61 00 
  4041b5:	48 c7 45 f0 60 d3 61 	movq   $0x61d360,-0x10(%rbp)
  4041bc:	00 
  4041bd:	eb 1f                	jmp    4041de <main+0x12f>
  4041bf:	48 8b 45 f0          	mov    -0x10(%rbp),%rax
  4041c3:	0f b6 00             	movzbl (%rax),%eax
  4041c6:	3c 2f                	cmp    $0x2f,%al
  4041c8:	75 0f                	jne    4041d9 <main+0x12a>
  4041ca:	48 8b 45 f0          	mov    -0x10(%rbp),%rax
  4041ce:	48 83 c0 01          	add    $0x1,%rax
  4041d2:	48 89 05 1f a2 21 00 	mov    %rax,0x21a21f(%rip)        # 61e3f8 <progName>
  4041d9:	48 83 45 f0 01       	addq   $0x1,-0x10(%rbp)
  4041de:	48 8b 45 f0          	mov    -0x10(%rbp),%rax
  4041e2:	0f b6 00             	movzbl (%rax),%eax
  4041e5:	84 c0                	test   %al,%al
  4041e7:	75 d6                	jne    4041bf <main+0x110>
  4041e9:	48 c7 45 d0 00 00 00 	movq   $0x0,-0x30(%rbp)
  4041f0:	00 
  4041f1:	48 8d 45 d0          	lea    -0x30(%rbp),%rax
  4041f5:	be 11 a0 41 00       	mov    $0x41a011,%esi
  4041fa:	48 89 c7             	mov    %rax,%rdi
  4041fd:	e8 4f fd ff ff       	callq  403f51 <addFlagsFromEnvVar>
  404202:	48 8d 45 d0          	lea    -0x30(%rbp),%rax
  404206:	be 17 a0 41 00       	mov    $0x41a017,%esi
  40420b:	48 89 c7             	mov    %rax,%rdi
  40420e:	e8 3e fd ff ff       	callq  403f51 <addFlagsFromEnvVar>
  404213:	c7 45 fc 01 00 00 00 	movl   $0x1,-0x4(%rbp)
  40421a:	eb 2e                	jmp    40424a <main+0x19b>
  40421c:	8b 45 fc             	mov    -0x4(%rbp),%eax
  40421f:	48 98                	cltq   
  404221:	48 8d 14 c5 00 00 00 	lea    0x0(,%rax,8),%rdx
  404228:	00 
  404229:	48 8b 45 c0          	mov    -0x40(%rbp),%rax
  40422d:	48 01 d0             	add    %rdx,%rax
  404230:	48 8b 10             	mov    (%rax),%rdx
  404233:	48 8b 45 d0          	mov    -0x30(%rbp),%rax
  404237:	48 89 d6             	mov    %rdx,%rsi
  40423a:	48 89 c7             	mov    %rax,%rdi
  40423d:	e8 6e fc ff ff       	callq  403eb0 <snocString>
  404242:	48 89 45 d0          	mov    %rax,-0x30(%rbp)
  404246:	83 45 fc 01          	addl   $0x1,-0x4(%rbp)
  40424a:	8b 45 cc             	mov    -0x34(%rbp),%eax
  40424d:	83 e8 01             	sub    $0x1,%eax
  404250:	3b 45 fc             	cmp    -0x4(%rbp),%eax
  404253:	7d c7                	jge    40421c <main+0x16d>
  404255:	c7 05 45 99 21 00 07 	movl   $0x7,0x219945(%rip)        # 61dba4 <longestFileName>
  40425c:	00 00 00 
  40425f:	c7 05 37 99 21 00 00 	movl   $0x0,0x219937(%rip)        # 61dba0 <numFileNames>
  404266:	00 00 00 
  404269:	c6 45 e7 01          	movb   $0x1,-0x19(%rbp)
  40426d:	48 8b 45 d0          	mov    -0x30(%rbp),%rax
  404271:	48 89 45 e8          	mov    %rax,-0x18(%rbp)
  404275:	e9 80 00 00 00       	jmpq   4042fa <main+0x24b>
  40427a:	48 8b 45 e8          	mov    -0x18(%rbp),%rax
  40427e:	48 8b 00             	mov    (%rax),%rax
  404281:	be 1c a0 41 00       	mov    $0x41a01c,%esi
  404286:	48 89 c7             	mov    %rax,%rdi
  404289:	e8 32 cf ff ff       	callq  4011c0 <strcmp@plt>
  40428e:	85 c0                	test   %eax,%eax
  404290:	75 06                	jne    404298 <main+0x1e9>
  404292:	c6 45 e7 00          	movb   $0x0,-0x19(%rbp)
  404296:	eb 56                	jmp    4042ee <main+0x23f>
  404298:	48 8b 45 e8          	mov    -0x18(%rbp),%rax
  40429c:	48 8b 00             	mov    (%rax),%rax
  40429f:	0f b6 00             	movzbl (%rax),%eax
  4042a2:	3c 2d                	cmp    $0x2d,%al
  4042a4:	75 06                	jne    4042ac <main+0x1fd>
  4042a6:	80 7d e7 00          	cmpb   $0x0,-0x19(%rbp)
  4042aa:	75 41                	jne    4042ed <main+0x23e>
  4042ac:	8b 05 ee 98 21 00    	mov    0x2198ee(%rip),%eax        # 61dba0 <numFileNames>
  4042b2:	83 c0 01             	add    $0x1,%eax
  4042b5:	89 05 e5 98 21 00    	mov    %eax,0x2198e5(%rip)        # 61dba0 <numFileNames>
  4042bb:	48 8b 45 e8          	mov    -0x18(%rbp),%rax
  4042bf:	48 8b 00             	mov    (%rax),%rax
  4042c2:	48 89 c7             	mov    %rax,%rdi
  4042c5:	e8 86 ce ff ff       	callq  401150 <strlen@plt>
  4042ca:	89 c2                	mov    %eax,%edx
  4042cc:	8b 05 d2 98 21 00    	mov    0x2198d2(%rip),%eax        # 61dba4 <longestFileName>
  4042d2:	39 c2                	cmp    %eax,%edx
  4042d4:	7e 18                	jle    4042ee <main+0x23f>
  4042d6:	48 8b 45 e8          	mov    -0x18(%rbp),%rax
  4042da:	48 8b 00             	mov    (%rax),%rax
  4042dd:	48 89 c7             	mov    %rax,%rdi
  4042e0:	e8 6b ce ff ff       	callq  401150 <strlen@plt>
  4042e5:	89 05 b9 98 21 00    	mov    %eax,0x2198b9(%rip)        # 61dba4 <longestFileName>
  4042eb:	eb 01                	jmp    4042ee <main+0x23f>
  4042ed:	90                   	nop
  4042ee:	48 8b 45 e8          	mov    -0x18(%rbp),%rax
  4042f2:	48 8b 40 08          	mov    0x8(%rax),%rax
  4042f6:	48 89 45 e8          	mov    %rax,-0x18(%rbp)
  4042fa:	48 83 7d e8 00       	cmpq   $0x0,-0x18(%rbp)
  4042ff:	0f 85 75 ff ff ff    	jne    40427a <main+0x1cb>
  404305:	8b 05 95 98 21 00    	mov    0x219895(%rip),%eax        # 61dba0 <numFileNames>
  40430b:	85 c0                	test   %eax,%eax
  40430d:	75 0c                	jne    40431b <main+0x26c>
  40430f:	c7 05 8f 98 21 00 01 	movl   $0x1,0x21988f(%rip)        # 61dba8 <srcMode>
  404316:	00 00 00 
  404319:	eb 0a                	jmp    404325 <main+0x276>
  40431b:	c7 05 83 98 21 00 03 	movl   $0x3,0x219883(%rip)        # 61dba8 <srcMode>
  404322:	00 00 00 
  404325:	c7 05 c1 a0 21 00 01 	movl   $0x1,0x21a0c1(%rip)        # 61e3f0 <opMode>
  40432c:	00 00 00 
  40432f:	48 8b 05 c2 a0 21 00 	mov    0x21a0c2(%rip),%rax        # 61e3f8 <progName>
  404336:	be 1f a0 41 00       	mov    $0x41a01f,%esi
  40433b:	48 89 c7             	mov    %rax,%rdi
  40433e:	e8 ad cf ff ff       	callq  4012f0 <strstr@plt>
  404343:	48 85 c0             	test   %rax,%rax
  404346:	75 19                	jne    404361 <main+0x2b2>
  404348:	48 8b 05 a9 a0 21 00 	mov    0x21a0a9(%rip),%rax        # 61e3f8 <progName>
  40434f:	be 25 a0 41 00       	mov    $0x41a025,%esi
  404354:	48 89 c7             	mov    %rax,%rdi
  404357:	e8 94 cf ff ff       	callq  4012f0 <strstr@plt>
  40435c:	48 85 c0             	test   %rax,%rax
  40435f:	74 0a                	je     40436b <main+0x2bc>
  404361:	c7 05 85 a0 21 00 02 	movl   $0x2,0x21a085(%rip)        # 61e3f0 <opMode>
  404368:	00 00 00 
  40436b:	48 8b 05 86 a0 21 00 	mov    0x21a086(%rip),%rax        # 61e3f8 <progName>
  404372:	be 2b a0 41 00       	mov    $0x41a02b,%esi
  404377:	48 89 c7             	mov    %rax,%rdi
  40437a:	e8 71 cf ff ff       	callq  4012f0 <strstr@plt>
  40437f:	48 85 c0             	test   %rax,%rax
  404382:	75 4b                	jne    4043cf <main+0x320>
  404384:	48 8b 05 6d a0 21 00 	mov    0x21a06d(%rip),%rax        # 61e3f8 <progName>
  40438b:	be 31 a0 41 00       	mov    $0x41a031,%esi
  404390:	48 89 c7             	mov    %rax,%rdi
  404393:	e8 58 cf ff ff       	callq  4012f0 <strstr@plt>
  404398:	48 85 c0             	test   %rax,%rax
  40439b:	75 32                	jne    4043cf <main+0x320>
  40439d:	48 8b 05 54 a0 21 00 	mov    0x21a054(%rip),%rax        # 61e3f8 <progName>
  4043a4:	be 37 a0 41 00       	mov    $0x41a037,%esi
  4043a9:	48 89 c7             	mov    %rax,%rdi
  4043ac:	e8 3f cf ff ff       	callq  4012f0 <strstr@plt>
  4043b1:	48 85 c0             	test   %rax,%rax
  4043b4:	75 19                	jne    4043cf <main+0x320>
  4043b6:	48 8b 05 3b a0 21 00 	mov    0x21a03b(%rip),%rax        # 61e3f8 <progName>
  4043bd:	be 3c a0 41 00       	mov    $0x41a03c,%esi
  4043c2:	48 89 c7             	mov    %rax,%rdi
  4043c5:	e8 26 cf ff ff       	callq  4012f0 <strstr@plt>
  4043ca:	48 85 c0             	test   %rax,%rax
  4043cd:	74 26                	je     4043f5 <main+0x346>
  4043cf:	c7 05 17 a0 21 00 02 	movl   $0x2,0x21a017(%rip)        # 61e3f0 <opMode>
  4043d6:	00 00 00 
  4043d9:	8b 05 c1 97 21 00    	mov    0x2197c1(%rip),%eax        # 61dba0 <numFileNames>
  4043df:	85 c0                	test   %eax,%eax
  4043e1:	75 07                	jne    4043ea <main+0x33b>
  4043e3:	b8 01 00 00 00       	mov    $0x1,%eax
  4043e8:	eb 05                	jmp    4043ef <main+0x340>
  4043ea:	b8 02 00 00 00       	mov    $0x2,%eax
  4043ef:	89 05 b3 97 21 00    	mov    %eax,0x2197b3(%rip)        # 61dba8 <srcMode>
  4043f5:	48 8b 45 d0          	mov    -0x30(%rbp),%rax
  4043f9:	48 89 45 e8          	mov    %rax,-0x18(%rbp)
  4043fd:	e9 05 02 00 00       	jmpq   404607 <main+0x558>
  404402:	48 8b 45 e8          	mov    -0x18(%rbp),%rax
  404406:	48 8b 00             	mov    (%rax),%rax
  404409:	be 1c a0 41 00       	mov    $0x41a01c,%esi
  40440e:	48 89 c7             	mov    %rax,%rdi
  404411:	e8 aa cd ff ff       	callq  4011c0 <strcmp@plt>
  404416:	85 c0                	test   %eax,%eax
  404418:	0f 84 f6 01 00 00    	je     404614 <main+0x565>
  40441e:	48 8b 45 e8          	mov    -0x18(%rbp),%rax
  404422:	48 8b 00             	mov    (%rax),%rax
  404425:	0f b6 00             	movzbl (%rax),%eax
  404428:	3c 2d                	cmp    $0x2d,%al
  40442a:	0f 85 cb 01 00 00    	jne    4045fb <main+0x54c>
  404430:	48 8b 45 e8          	mov    -0x18(%rbp),%rax
  404434:	48 8b 00             	mov    (%rax),%rax
  404437:	48 83 c0 01          	add    $0x1,%rax
  40443b:	0f b6 00             	movzbl (%rax),%eax
  40443e:	3c 2d                	cmp    $0x2d,%al
  404440:	0f 84 b5 01 00 00    	je     4045fb <main+0x54c>
  404446:	c7 45 f8 01 00 00 00 	movl   $0x1,-0x8(%rbp)
  40444d:	e9 8f 01 00 00       	jmpq   4045e1 <main+0x532>
  404452:	48 8b 45 e8          	mov    -0x18(%rbp),%rax
  404456:	48 8b 10             	mov    (%rax),%rdx
  404459:	8b 45 f8             	mov    -0x8(%rbp),%eax
  40445c:	48 98                	cltq   
  40445e:	48 01 d0             	add    %rdx,%rax
  404461:	0f b6 00             	movzbl (%rax),%eax
  404464:	0f be c0             	movsbl %al,%eax
  404467:	83 e8 31             	sub    $0x31,%eax
  40446a:	83 f8 49             	cmp    $0x49,%eax
  40446d:	0f 87 2a 01 00 00    	ja     40459d <main+0x4ee>
  404473:	89 c0                	mov    %eax,%eax
  404475:	48 8b 04 c5 a0 a1 41 	mov    0x41a1a0(,%rax,8),%rax
  40447c:	00 
  40447d:	ff e0                	jmpq   *%rax
  40447f:	c7 05 1f 97 21 00 02 	movl   $0x2,0x21971f(%rip)        # 61dba8 <srcMode>
  404486:	00 00 00 
  404489:	e9 4f 01 00 00       	jmpq   4045dd <main+0x52e>
  40448e:	c7 05 58 9f 21 00 02 	movl   $0x2,0x219f58(%rip)        # 61e3f0 <opMode>
  404495:	00 00 00 
  404498:	e9 40 01 00 00       	jmpq   4045dd <main+0x52e>
  40449d:	c7 05 49 9f 21 00 01 	movl   $0x1,0x219f49(%rip)        # 61e3f0 <opMode>
  4044a4:	00 00 00 
  4044a7:	e9 31 01 00 00       	jmpq   4045dd <main+0x52e>
  4044ac:	c6 05 38 9f 21 00 01 	movb   $0x1,0x219f38(%rip)        # 61e3eb <forceOverwrite>
  4044b3:	e9 25 01 00 00       	jmpq   4045dd <main+0x52e>
  4044b8:	c7 05 2e 9f 21 00 03 	movl   $0x3,0x219f2e(%rip)        # 61e3f0 <opMode>
  4044bf:	00 00 00 
  4044c2:	e9 16 01 00 00       	jmpq   4045dd <main+0x52e>
  4044c7:	c6 05 de 96 21 00 01 	movb   $0x1,0x2196de(%rip)        # 61dbac <keepInputFiles>
  4044ce:	e9 0a 01 00 00       	jmpq   4045dd <main+0x52e>
  4044d3:	c6 05 ba 96 21 00 01 	movb   $0x1,0x2196ba(%rip)        # 61db94 <smallMode>
  4044da:	e9 fe 00 00 00       	jmpq   4045dd <main+0x52e>
  4044df:	c6 05 d2 96 21 00 00 	movb   $0x0,0x2196d2(%rip)        # 61dbb8 <noisy>
  4044e6:	e9 f2 00 00 00       	jmpq   4045dd <main+0x52e>
  4044eb:	c7 05 bb 96 21 00 01 	movl   $0x1,0x2196bb(%rip)        # 61dbb0 <blockSize100k>
  4044f2:	00 00 00 
  4044f5:	e9 e3 00 00 00       	jmpq   4045dd <main+0x52e>
  4044fa:	c7 05 ac 96 21 00 02 	movl   $0x2,0x2196ac(%rip)        # 61dbb0 <blockSize100k>
  404501:	00 00 00 
  404504:	e9 d4 00 00 00       	jmpq   4045dd <main+0x52e>
  404509:	c7 05 9d 96 21 00 03 	movl   $0x3,0x21969d(%rip)        # 61dbb0 <blockSize100k>
  404510:	00 00 00 
  404513:	e9 c5 00 00 00       	jmpq   4045dd <main+0x52e>
  404518:	c7 05 8e 96 21 00 04 	movl   $0x4,0x21968e(%rip)        # 61dbb0 <blockSize100k>
  40451f:	00 00 00 
  404522:	e9 b6 00 00 00       	jmpq   4045dd <main+0x52e>
  404527:	c7 05 7f 96 21 00 05 	movl   $0x5,0x21967f(%rip)        # 61dbb0 <blockSize100k>
  40452e:	00 00 00 
  404531:	e9 a7 00 00 00       	jmpq   4045dd <main+0x52e>
  404536:	c7 05 70 96 21 00 06 	movl   $0x6,0x219670(%rip)        # 61dbb0 <blockSize100k>
  40453d:	00 00 00 
  404540:	e9 98 00 00 00       	jmpq   4045dd <main+0x52e>
  404545:	c7 05 61 96 21 00 07 	movl   $0x7,0x219661(%rip)        # 61dbb0 <blockSize100k>
  40454c:	00 00 00 
  40454f:	e9 89 00 00 00       	jmpq   4045dd <main+0x52e>
  404554:	c7 05 52 96 21 00 08 	movl   $0x8,0x219652(%rip)        # 61dbb0 <blockSize100k>
  40455b:	00 00 00 
  40455e:	eb 7d                	jmp    4045dd <main+0x52e>
  404560:	c7 05 46 96 21 00 09 	movl   $0x9,0x219646(%rip)        # 61dbb0 <blockSize100k>
  404567:	00 00 00 
  40456a:	eb 71                	jmp    4045dd <main+0x52e>
  40456c:	e8 52 f8 ff ff       	callq  403dc3 <license>
  404571:	eb 6a                	jmp    4045dd <main+0x52e>
  404573:	8b 05 f3 91 21 00    	mov    0x2191f3(%rip),%eax        # 61d76c <verbosity>
  404579:	83 c0 01             	add    $0x1,%eax
  40457c:	89 05 ea 91 21 00    	mov    %eax,0x2191ea(%rip)        # 61d76c <verbosity>
  404582:	eb 59                	jmp    4045dd <main+0x52e>
  404584:	48 8b 05 6d 9e 21 00 	mov    0x219e6d(%rip),%rax        # 61e3f8 <progName>
  40458b:	48 89 c7             	mov    %rax,%rdi
  40458e:	e8 57 f8 ff ff       	callq  403dea <usage>
  404593:	bf 00 00 00 00       	mov    $0x0,%edi
  404598:	e8 23 cd ff ff       	callq  4012c0 <exit@plt>
  40459d:	48 8b 45 e8          	mov    -0x18(%rbp),%rax
  4045a1:	48 8b 08             	mov    (%rax),%rcx
  4045a4:	48 8b 15 4d 9e 21 00 	mov    0x219e4d(%rip),%rdx        # 61e3f8 <progName>
  4045ab:	48 8b 05 fe 8c 21 00 	mov    0x218cfe(%rip),%rax        # 61d2b0 <stderr@@GLIBC_2.2.5>
  4045b2:	be 41 a0 41 00       	mov    $0x41a041,%esi
  4045b7:	48 89 c7             	mov    %rax,%rdi
  4045ba:	b8 00 00 00 00       	mov    $0x0,%eax
  4045bf:	e8 2c cc ff ff       	callq  4011f0 <fprintf@plt>
  4045c4:	48 8b 05 2d 9e 21 00 	mov    0x219e2d(%rip),%rax        # 61e3f8 <progName>
  4045cb:	48 89 c7             	mov    %rax,%rdi
  4045ce:	e8 17 f8 ff ff       	callq  403dea <usage>
  4045d3:	bf 01 00 00 00       	mov    $0x1,%edi
  4045d8:	e8 e3 cc ff ff       	callq  4012c0 <exit@plt>
  4045dd:	83 45 f8 01          	addl   $0x1,-0x8(%rbp)
  4045e1:	48 8b 45 e8          	mov    -0x18(%rbp),%rax
  4045e5:	48 8b 10             	mov    (%rax),%rdx
  4045e8:	8b 45 f8             	mov    -0x8(%rbp),%eax
  4045eb:	48 98                	cltq   
  4045ed:	48 01 d0             	add    %rdx,%rax
  4045f0:	0f b6 00             	movzbl (%rax),%eax
  4045f3:	84 c0                	test   %al,%al
  4045f5:	0f 85 57 fe ff ff    	jne    404452 <main+0x3a3>
  4045fb:	48 8b 45 e8          	mov    -0x18(%rbp),%rax
  4045ff:	48 8b 40 08          	mov    0x8(%rax),%rax
  404603:	48 89 45 e8          	mov    %rax,-0x18(%rbp)
  404607:	48 83 7d e8 00       	cmpq   $0x0,-0x18(%rbp)
  40460c:	0f 85 f0 fd ff ff    	jne    404402 <main+0x353>
  404612:	eb 01                	jmp    404615 <main+0x566>
  404614:	90                   	nop
  404615:	48 8b 45 d0          	mov    -0x30(%rbp),%rax
  404619:	48 89 45 e8          	mov    %rax,-0x18(%rbp)
  40461d:	e9 1f 03 00 00       	jmpq   404941 <main+0x892>
  404622:	48 8b 45 e8          	mov    -0x18(%rbp),%rax
  404626:	48 8b 00             	mov    (%rax),%rax
  404629:	be 1c a0 41 00       	mov    $0x41a01c,%esi
  40462e:	48 89 c7             	mov    %rax,%rdi
  404631:	e8 8a cb ff ff       	callq  4011c0 <strcmp@plt>
  404636:	85 c0                	test   %eax,%eax
  404638:	0f 84 10 03 00 00    	je     40494e <main+0x89f>
  40463e:	48 8b 45 e8          	mov    -0x18(%rbp),%rax
  404642:	48 8b 00             	mov    (%rax),%rax
  404645:	be 54 a0 41 00       	mov    $0x41a054,%esi
  40464a:	48 89 c7             	mov    %rax,%rdi
  40464d:	e8 6e cb ff ff       	callq  4011c0 <strcmp@plt>
  404652:	85 c0                	test   %eax,%eax
  404654:	75 0f                	jne    404665 <main+0x5b6>
  404656:	c7 05 48 95 21 00 02 	movl   $0x2,0x219548(%rip)        # 61dba8 <srcMode>
  40465d:	00 00 00 
  404660:	e9 d0 02 00 00       	jmpq   404935 <main+0x886>
  404665:	48 8b 45 e8          	mov    -0x18(%rbp),%rax
  404669:	48 8b 00             	mov    (%rax),%rax
  40466c:	be 5d a0 41 00       	mov    $0x41a05d,%esi
  404671:	48 89 c7             	mov    %rax,%rdi
  404674:	e8 47 cb ff ff       	callq  4011c0 <strcmp@plt>
  404679:	85 c0                	test   %eax,%eax
  40467b:	75 0f                	jne    40468c <main+0x5dd>
  40467d:	c7 05 69 9d 21 00 02 	movl   $0x2,0x219d69(%rip)        # 61e3f0 <opMode>
  404684:	00 00 00 
  404687:	e9 a9 02 00 00       	jmpq   404935 <main+0x886>
  40468c:	48 8b 45 e8          	mov    -0x18(%rbp),%rax
  404690:	48 8b 00             	mov    (%rax),%rax
  404693:	be 6a a0 41 00       	mov    $0x41a06a,%esi
  404698:	48 89 c7             	mov    %rax,%rdi
  40469b:	e8 20 cb ff ff       	callq  4011c0 <strcmp@plt>
  4046a0:	85 c0                	test   %eax,%eax
  4046a2:	75 0f                	jne    4046b3 <main+0x604>
  4046a4:	c7 05 42 9d 21 00 01 	movl   $0x1,0x219d42(%rip)        # 61e3f0 <opMode>
  4046ab:	00 00 00 
  4046ae:	e9 82 02 00 00       	jmpq   404935 <main+0x886>
  4046b3:	48 8b 45 e8          	mov    -0x18(%rbp),%rax
  4046b7:	48 8b 00             	mov    (%rax),%rax
  4046ba:	be 75 a0 41 00       	mov    $0x41a075,%esi
  4046bf:	48 89 c7             	mov    %rax,%rdi
  4046c2:	e8 f9 ca ff ff       	callq  4011c0 <strcmp@plt>
  4046c7:	85 c0                	test   %eax,%eax
  4046c9:	75 0c                	jne    4046d7 <main+0x628>
  4046cb:	c6 05 19 9d 21 00 01 	movb   $0x1,0x219d19(%rip)        # 61e3eb <forceOverwrite>
  4046d2:	e9 5e 02 00 00       	jmpq   404935 <main+0x886>
  4046d7:	48 8b 45 e8          	mov    -0x18(%rbp),%rax
  4046db:	48 8b 00             	mov    (%rax),%rax
  4046de:	be 7d a0 41 00       	mov    $0x41a07d,%esi
  4046e3:	48 89 c7             	mov    %rax,%rdi
  4046e6:	e8 d5 ca ff ff       	callq  4011c0 <strcmp@plt>
  4046eb:	85 c0                	test   %eax,%eax
  4046ed:	75 0f                	jne    4046fe <main+0x64f>
  4046ef:	c7 05 f7 9c 21 00 03 	movl   $0x3,0x219cf7(%rip)        # 61e3f0 <opMode>
  4046f6:	00 00 00 
  4046f9:	e9 37 02 00 00       	jmpq   404935 <main+0x886>
  4046fe:	48 8b 45 e8          	mov    -0x18(%rbp),%rax
  404702:	48 8b 00             	mov    (%rax),%rax
  404705:	be 84 a0 41 00       	mov    $0x41a084,%esi
  40470a:	48 89 c7             	mov    %rax,%rdi
  40470d:	e8 ae ca ff ff       	callq  4011c0 <strcmp@plt>
  404712:	85 c0                	test   %eax,%eax
  404714:	75 0c                	jne    404722 <main+0x673>
  404716:	c6 05 8f 94 21 00 01 	movb   $0x1,0x21948f(%rip)        # 61dbac <keepInputFiles>
  40471d:	e9 13 02 00 00       	jmpq   404935 <main+0x886>
  404722:	48 8b 45 e8          	mov    -0x18(%rbp),%rax
  404726:	48 8b 00             	mov    (%rax),%rax
  404729:	be 8b a0 41 00       	mov    $0x41a08b,%esi
  40472e:	48 89 c7             	mov    %rax,%rdi
  404731:	e8 8a ca ff ff       	callq  4011c0 <strcmp@plt>
  404736:	85 c0                	test   %eax,%eax
  404738:	75 0c                	jne    404746 <main+0x697>
  40473a:	c6 05 53 94 21 00 01 	movb   $0x1,0x219453(%rip)        # 61db94 <smallMode>
  404741:	e9 ef 01 00 00       	jmpq   404935 <main+0x886>
  404746:	48 8b 45 e8          	mov    -0x18(%rbp),%rax
  40474a:	48 8b 00             	mov    (%rax),%rax
  40474d:	be 93 a0 41 00       	mov    $0x41a093,%esi
  404752:	48 89 c7             	mov    %rax,%rdi
  404755:	e8 66 ca ff ff       	callq  4011c0 <strcmp@plt>
  40475a:	85 c0                	test   %eax,%eax
  40475c:	75 0c                	jne    40476a <main+0x6bb>
  40475e:	c6 05 53 94 21 00 00 	movb   $0x0,0x219453(%rip)        # 61dbb8 <noisy>
  404765:	e9 cb 01 00 00       	jmpq   404935 <main+0x886>
  40476a:	48 8b 45 e8          	mov    -0x18(%rbp),%rax
  40476e:	48 8b 00             	mov    (%rax),%rax
  404771:	be 9b a0 41 00       	mov    $0x41a09b,%esi
  404776:	48 89 c7             	mov    %rax,%rdi
  404779:	e8 42 ca ff ff       	callq  4011c0 <strcmp@plt>
  40477e:	85 c0                	test   %eax,%eax
  404780:	75 0a                	jne    40478c <main+0x6dd>
  404782:	e8 3c f6 ff ff       	callq  403dc3 <license>
  404787:	e9 a9 01 00 00       	jmpq   404935 <main+0x886>
  40478c:	48 8b 45 e8          	mov    -0x18(%rbp),%rax
  404790:	48 8b 00             	mov    (%rax),%rax
  404793:	be a5 a0 41 00       	mov    $0x41a0a5,%esi
  404798:	48 89 c7             	mov    %rax,%rdi
  40479b:	e8 20 ca ff ff       	callq  4011c0 <strcmp@plt>
  4047a0:	85 c0                	test   %eax,%eax
  4047a2:	75 0a                	jne    4047ae <main+0x6ff>
  4047a4:	e8 1a f6 ff ff       	callq  403dc3 <license>
  4047a9:	e9 87 01 00 00       	jmpq   404935 <main+0x886>
  4047ae:	48 8b 45 e8          	mov    -0x18(%rbp),%rax
  4047b2:	48 8b 00             	mov    (%rax),%rax
  4047b5:	be af a0 41 00       	mov    $0x41a0af,%esi
  4047ba:	48 89 c7             	mov    %rax,%rdi
  4047bd:	e8 fe c9 ff ff       	callq  4011c0 <strcmp@plt>
  4047c2:	85 c0                	test   %eax,%eax
  4047c4:	75 0f                	jne    4047d5 <main+0x726>
  4047c6:	c7 05 bc 93 21 00 01 	movl   $0x1,0x2193bc(%rip)        # 61db8c <workFactor>
  4047cd:	00 00 00 
  4047d0:	e9 60 01 00 00       	jmpq   404935 <main+0x886>
  4047d5:	48 8b 45 e8          	mov    -0x18(%rbp),%rax
  4047d9:	48 8b 00             	mov    (%rax),%rax
  4047dc:	be bd a0 41 00       	mov    $0x41a0bd,%esi
  4047e1:	48 89 c7             	mov    %rax,%rdi
  4047e4:	e8 d7 c9 ff ff       	callq  4011c0 <strcmp@plt>
  4047e9:	85 c0                	test   %eax,%eax
  4047eb:	75 14                	jne    404801 <main+0x752>
  4047ed:	48 8b 45 e8          	mov    -0x18(%rbp),%rax
  4047f1:	48 8b 00             	mov    (%rax),%rax
  4047f4:	48 89 c7             	mov    %rax,%rdi
  4047f7:	e8 21 f6 ff ff       	callq  403e1d <redundant>
  4047fc:	e9 34 01 00 00       	jmpq   404935 <main+0x886>
  404801:	48 8b 45 e8          	mov    -0x18(%rbp),%rax
  404805:	48 8b 00             	mov    (%rax),%rax
  404808:	be cf a0 41 00       	mov    $0x41a0cf,%esi
  40480d:	48 89 c7             	mov    %rax,%rdi
  404810:	e8 ab c9 ff ff       	callq  4011c0 <strcmp@plt>
  404815:	85 c0                	test   %eax,%eax
  404817:	75 14                	jne    40482d <main+0x77e>
  404819:	48 8b 45 e8          	mov    -0x18(%rbp),%rax
  40481d:	48 8b 00             	mov    (%rax),%rax
  404820:	48 89 c7             	mov    %rax,%rdi
  404823:	e8 f5 f5 ff ff       	callq  403e1d <redundant>
  404828:	e9 08 01 00 00       	jmpq   404935 <main+0x886>
  40482d:	48 8b 45 e8          	mov    -0x18(%rbp),%rax
  404831:	48 8b 00             	mov    (%rax),%rax
  404834:	be e1 a0 41 00       	mov    $0x41a0e1,%esi
  404839:	48 89 c7             	mov    %rax,%rdi
  40483c:	e8 7f c9 ff ff       	callq  4011c0 <strcmp@plt>
  404841:	85 c0                	test   %eax,%eax
  404843:	75 0f                	jne    404854 <main+0x7a5>
  404845:	c7 05 61 93 21 00 01 	movl   $0x1,0x219361(%rip)        # 61dbb0 <blockSize100k>
  40484c:	00 00 00 
  40484f:	e9 e1 00 00 00       	jmpq   404935 <main+0x886>
  404854:	48 8b 45 e8          	mov    -0x18(%rbp),%rax
  404858:	48 8b 00             	mov    (%rax),%rax
  40485b:	be e8 a0 41 00       	mov    $0x41a0e8,%esi
  404860:	48 89 c7             	mov    %rax,%rdi
  404863:	e8 58 c9 ff ff       	callq  4011c0 <strcmp@plt>
  404868:	85 c0                	test   %eax,%eax
  40486a:	75 0f                	jne    40487b <main+0x7cc>
  40486c:	c7 05 3a 93 21 00 09 	movl   $0x9,0x21933a(%rip)        # 61dbb0 <blockSize100k>
  404873:	00 00 00 
  404876:	e9 ba 00 00 00       	jmpq   404935 <main+0x886>
  40487b:	48 8b 45 e8          	mov    -0x18(%rbp),%rax
  40487f:	48 8b 00             	mov    (%rax),%rax
  404882:	be ef a0 41 00       	mov    $0x41a0ef,%esi
  404887:	48 89 c7             	mov    %rax,%rdi
  40488a:	e8 31 c9 ff ff       	callq  4011c0 <strcmp@plt>
  40488f:	85 c0                	test   %eax,%eax
  404891:	75 14                	jne    4048a7 <main+0x7f8>
  404893:	8b 05 d3 8e 21 00    	mov    0x218ed3(%rip),%eax        # 61d76c <verbosity>
  404899:	83 c0 01             	add    $0x1,%eax
  40489c:	89 05 ca 8e 21 00    	mov    %eax,0x218eca(%rip)        # 61d76c <verbosity>
  4048a2:	e9 8e 00 00 00       	jmpq   404935 <main+0x886>
  4048a7:	48 8b 45 e8          	mov    -0x18(%rbp),%rax
  4048ab:	48 8b 00             	mov    (%rax),%rax
  4048ae:	be f9 a0 41 00       	mov    $0x41a0f9,%esi
  4048b3:	48 89 c7             	mov    %rax,%rdi
  4048b6:	e8 05 c9 ff ff       	callq  4011c0 <strcmp@plt>
  4048bb:	85 c0                	test   %eax,%eax
  4048bd:	75 19                	jne    4048d8 <main+0x829>
  4048bf:	48 8b 05 32 9b 21 00 	mov    0x219b32(%rip),%rax        # 61e3f8 <progName>
  4048c6:	48 89 c7             	mov    %rax,%rdi
  4048c9:	e8 1c f5 ff ff       	callq  403dea <usage>
  4048ce:	bf 00 00 00 00       	mov    $0x0,%edi
  4048d3:	e8 e8 c9 ff ff       	callq  4012c0 <exit@plt>
  4048d8:	48 8b 45 e8          	mov    -0x18(%rbp),%rax
  4048dc:	48 8b 00             	mov    (%rax),%rax
  4048df:	ba 02 00 00 00       	mov    $0x2,%edx
  4048e4:	be 1c a0 41 00       	mov    $0x41a01c,%esi
  4048e9:	48 89 c7             	mov    %rax,%rdi
  4048ec:	e8 cf c7 ff ff       	callq  4010c0 <strncmp@plt>
  4048f1:	85 c0                	test   %eax,%eax
  4048f3:	75 40                	jne    404935 <main+0x886>
  4048f5:	48 8b 45 e8          	mov    -0x18(%rbp),%rax
  4048f9:	48 8b 08             	mov    (%rax),%rcx
  4048fc:	48 8b 15 f5 9a 21 00 	mov    0x219af5(%rip),%rdx        # 61e3f8 <progName>
  404903:	48 8b 05 a6 89 21 00 	mov    0x2189a6(%rip),%rax        # 61d2b0 <stderr@@GLIBC_2.2.5>
  40490a:	be 41 a0 41 00       	mov    $0x41a041,%esi
  40490f:	48 89 c7             	mov    %rax,%rdi
  404912:	b8 00 00 00 00       	mov    $0x0,%eax
  404917:	e8 d4 c8 ff ff       	callq  4011f0 <fprintf@plt>
  40491c:	48 8b 05 d5 9a 21 00 	mov    0x219ad5(%rip),%rax        # 61e3f8 <progName>
  404923:	48 89 c7             	mov    %rax,%rdi
  404926:	e8 bf f4 ff ff       	callq  403dea <usage>
  40492b:	bf 01 00 00 00       	mov    $0x1,%edi
  404930:	e8 8b c9 ff ff       	callq  4012c0 <exit@plt>
  404935:	48 8b 45 e8          	mov    -0x18(%rbp),%rax
  404939:	48 8b 40 08          	mov    0x8(%rax),%rax
  40493d:	48 89 45 e8          	mov    %rax,-0x18(%rbp)
  404941:	48 83 7d e8 00       	cmpq   $0x0,-0x18(%rbp)
  404946:	0f 85 d6 fc ff ff    	jne    404622 <main+0x573>
  40494c:	eb 01                	jmp    40494f <main+0x8a0>
  40494e:	90                   	nop
  40494f:	8b 05 17 8e 21 00    	mov    0x218e17(%rip),%eax        # 61d76c <verbosity>
  404955:	83 f8 04             	cmp    $0x4,%eax
  404958:	7e 0a                	jle    404964 <main+0x8b5>
  40495a:	c7 05 08 8e 21 00 04 	movl   $0x4,0x218e08(%rip)        # 61d76c <verbosity>
  404961:	00 00 00 
  404964:	8b 05 86 9a 21 00    	mov    0x219a86(%rip),%eax        # 61e3f0 <opMode>
  40496a:	83 f8 01             	cmp    $0x1,%eax
  40496d:	75 20                	jne    40498f <main+0x8e0>
  40496f:	0f b6 05 1e 92 21 00 	movzbl 0x21921e(%rip),%eax        # 61db94 <smallMode>
  404976:	84 c0                	test   %al,%al
  404978:	74 15                	je     40498f <main+0x8e0>
  40497a:	8b 05 30 92 21 00    	mov    0x219230(%rip),%eax        # 61dbb0 <blockSize100k>
  404980:	83 f8 02             	cmp    $0x2,%eax
  404983:	7e 0a                	jle    40498f <main+0x8e0>
  404985:	c7 05 21 92 21 00 02 	movl   $0x2,0x219221(%rip)        # 61dbb0 <blockSize100k>
  40498c:	00 00 00 
  40498f:	8b 05 5b 9a 21 00    	mov    0x219a5b(%rip),%eax        # 61e3f0 <opMode>
  404995:	83 f8 03             	cmp    $0x3,%eax
  404998:	75 35                	jne    4049cf <main+0x920>
  40499a:	8b 05 08 92 21 00    	mov    0x219208(%rip),%eax        # 61dba8 <srcMode>
  4049a0:	83 f8 02             	cmp    $0x2,%eax
  4049a3:	75 2a                	jne    4049cf <main+0x920>
  4049a5:	48 8b 15 4c 9a 21 00 	mov    0x219a4c(%rip),%rdx        # 61e3f8 <progName>
  4049ac:	48 8b 05 fd 88 21 00 	mov    0x2188fd(%rip),%rax        # 61d2b0 <stderr@@GLIBC_2.2.5>
  4049b3:	be 00 a1 41 00       	mov    $0x41a100,%esi
  4049b8:	48 89 c7             	mov    %rax,%rdi
  4049bb:	b8 00 00 00 00       	mov    $0x0,%eax
  4049c0:	e8 2b c8 ff ff       	callq  4011f0 <fprintf@plt>
  4049c5:	bf 01 00 00 00       	mov    $0x1,%edi
  4049ca:	e8 f1 c8 ff ff       	callq  4012c0 <exit@plt>
  4049cf:	8b 05 d3 91 21 00    	mov    0x2191d3(%rip),%eax        # 61dba8 <srcMode>
  4049d5:	83 f8 02             	cmp    $0x2,%eax
  4049d8:	75 14                	jne    4049ee <main+0x93f>
  4049da:	8b 05 c0 91 21 00    	mov    0x2191c0(%rip),%eax        # 61dba0 <numFileNames>
  4049e0:	85 c0                	test   %eax,%eax
  4049e2:	75 0a                	jne    4049ee <main+0x93f>
  4049e4:	c7 05 ba 91 21 00 01 	movl   $0x1,0x2191ba(%rip)        # 61dba8 <srcMode>
  4049eb:	00 00 00 
  4049ee:	8b 05 fc 99 21 00    	mov    0x2199fc(%rip),%eax        # 61e3f0 <opMode>
  4049f4:	83 f8 01             	cmp    $0x1,%eax
  4049f7:	74 0a                	je     404a03 <main+0x954>
  4049f9:	c7 05 ad 91 21 00 00 	movl   $0x0,0x2191ad(%rip)        # 61dbb0 <blockSize100k>
  404a00:	00 00 00 
  404a03:	8b 05 9f 91 21 00    	mov    0x21919f(%rip),%eax        # 61dba8 <srcMode>
  404a09:	83 f8 03             	cmp    $0x3,%eax
  404a0c:	75 2d                	jne    404a3b <main+0x98c>
  404a0e:	be 62 26 40 00       	mov    $0x402662,%esi
  404a13:	bf 02 00 00 00       	mov    $0x2,%edi
  404a18:	e8 b3 c7 ff ff       	callq  4011d0 <signal@plt>
  404a1d:	be 62 26 40 00       	mov    $0x402662,%esi
  404a22:	bf 0f 00 00 00       	mov    $0xf,%edi
  404a27:	e8 a4 c7 ff ff       	callq  4011d0 <signal@plt>
  404a2c:	be 62 26 40 00       	mov    $0x402662,%esi
  404a31:	bf 01 00 00 00       	mov    $0x1,%edi
  404a36:	e8 95 c7 ff ff       	callq  4011d0 <signal@plt>
  404a3b:	8b 05 af 99 21 00    	mov    0x2199af(%rip),%eax        # 61e3f0 <opMode>
  404a41:	83 f8 01             	cmp    $0x1,%eax
  404a44:	0f 85 93 00 00 00    	jne    404add <main+0xa2e>
  404a4a:	8b 05 58 91 21 00    	mov    0x219158(%rip),%eax        # 61dba8 <srcMode>
  404a50:	83 f8 01             	cmp    $0x1,%eax
  404a53:	75 0f                	jne    404a64 <main+0x9b5>
  404a55:	bf 00 00 00 00       	mov    $0x0,%edi
  404a5a:	e8 14 e1 ff ff       	callq  402b73 <compress>
  404a5f:	e9 1d 02 00 00       	jmpq   404c81 <main+0xbd2>
  404a64:	c6 45 e7 01          	movb   $0x1,-0x19(%rbp)
  404a68:	48 8b 45 d0          	mov    -0x30(%rbp),%rax
  404a6c:	48 89 45 e8          	mov    %rax,-0x18(%rbp)
  404a70:	eb 5f                	jmp    404ad1 <main+0xa22>
  404a72:	48 8b 45 e8          	mov    -0x18(%rbp),%rax
  404a76:	48 8b 00             	mov    (%rax),%rax
  404a79:	be 1c a0 41 00       	mov    $0x41a01c,%esi
  404a7e:	48 89 c7             	mov    %rax,%rdi
  404a81:	e8 3a c7 ff ff       	callq  4011c0 <strcmp@plt>
  404a86:	85 c0                	test   %eax,%eax
  404a88:	75 06                	jne    404a90 <main+0x9e1>
  404a8a:	c6 45 e7 00          	movb   $0x0,-0x19(%rbp)
  404a8e:	eb 35                	jmp    404ac5 <main+0xa16>
  404a90:	48 8b 45 e8          	mov    -0x18(%rbp),%rax
  404a94:	48 8b 00             	mov    (%rax),%rax
  404a97:	0f b6 00             	movzbl (%rax),%eax
  404a9a:	3c 2d                	cmp    $0x2d,%al
  404a9c:	75 06                	jne    404aa4 <main+0x9f5>
  404a9e:	80 7d e7 00          	cmpb   $0x0,-0x19(%rbp)
  404aa2:	75 20                	jne    404ac4 <main+0xa15>
  404aa4:	8b 05 e6 90 21 00    	mov    0x2190e6(%rip),%eax        # 61db90 <numFilesProcessed>
  404aaa:	83 c0 01             	add    $0x1,%eax
  404aad:	89 05 dd 90 21 00    	mov    %eax,0x2190dd(%rip)        # 61db90 <numFilesProcessed>
  404ab3:	48 8b 45 e8          	mov    -0x18(%rbp),%rax
  404ab7:	48 8b 00             	mov    (%rax),%rax
  404aba:	48 89 c7             	mov    %rax,%rdi
  404abd:	e8 b1 e0 ff ff       	callq  402b73 <compress>
  404ac2:	eb 01                	jmp    404ac5 <main+0xa16>
  404ac4:	90                   	nop
  404ac5:	48 8b 45 e8          	mov    -0x18(%rbp),%rax
  404ac9:	48 8b 40 08          	mov    0x8(%rax),%rax
  404acd:	48 89 45 e8          	mov    %rax,-0x18(%rbp)
  404ad1:	48 83 7d e8 00       	cmpq   $0x0,-0x18(%rbp)
  404ad6:	75 9a                	jne    404a72 <main+0x9c3>
  404ad8:	e9 a4 01 00 00       	jmpq   404c81 <main+0xbd2>
  404add:	8b 05 0d 99 21 00    	mov    0x21990d(%rip),%eax        # 61e3f0 <opMode>
  404ae3:	83 f8 02             	cmp    $0x2,%eax
  404ae6:	0f 85 b8 00 00 00    	jne    404ba4 <main+0xaf5>
  404aec:	c6 05 f7 98 21 00 00 	movb   $0x0,0x2198f7(%rip)        # 61e3ea <unzFailsExist>
  404af3:	8b 05 af 90 21 00    	mov    0x2190af(%rip),%eax        # 61dba8 <srcMode>
  404af9:	83 f8 01             	cmp    $0x1,%eax
  404afc:	75 0c                	jne    404b0a <main+0xa5b>
  404afe:	bf 00 00 00 00       	mov    $0x0,%edi
  404b03:	e8 bc e7 ff ff       	callq  4032c4 <uncompress>
  404b08:	eb 74                	jmp    404b7e <main+0xacf>
  404b0a:	c6 45 e7 01          	movb   $0x1,-0x19(%rbp)
  404b0e:	48 8b 45 d0          	mov    -0x30(%rbp),%rax
  404b12:	48 89 45 e8          	mov    %rax,-0x18(%rbp)
  404b16:	eb 5f                	jmp    404b77 <main+0xac8>
  404b18:	48 8b 45 e8          	mov    -0x18(%rbp),%rax
  404b1c:	48 8b 00             	mov    (%rax),%rax
  404b1f:	be 1c a0 41 00       	mov    $0x41a01c,%esi
  404b24:	48 89 c7             	mov    %rax,%rdi
  404b27:	e8 94 c6 ff ff       	callq  4011c0 <strcmp@plt>
  404b2c:	85 c0                	test   %eax,%eax
  404b2e:	75 06                	jne    404b36 <main+0xa87>
  404b30:	c6 45 e7 00          	movb   $0x0,-0x19(%rbp)
  404b34:	eb 35                	jmp    404b6b <main+0xabc>
  404b36:	48 8b 45 e8          	mov    -0x18(%rbp),%rax
  404b3a:	48 8b 00             	mov    (%rax),%rax
  404b3d:	0f b6 00             	movzbl (%rax),%eax
  404b40:	3c 2d                	cmp    $0x2d,%al
  404b42:	75 06                	jne    404b4a <main+0xa9b>
  404b44:	80 7d e7 00          	cmpb   $0x0,-0x19(%rbp)
  404b48:	75 20                	jne    404b6a <main+0xabb>
  404b4a:	8b 05 40 90 21 00    	mov    0x219040(%rip),%eax        # 61db90 <numFilesProcessed>
  404b50:	83 c0 01             	add    $0x1,%eax
  404b53:	89 05 37 90 21 00    	mov    %eax,0x219037(%rip)        # 61db90 <numFilesProcessed>
  404b59:	48 8b 45 e8          	mov    -0x18(%rbp),%rax
  404b5d:	48 8b 00             	mov    (%rax),%rax
  404b60:	48 89 c7             	mov    %rax,%rdi
  404b63:	e8 5c e7 ff ff       	callq  4032c4 <uncompress>
  404b68:	eb 01                	jmp    404b6b <main+0xabc>
  404b6a:	90                   	nop
  404b6b:	48 8b 45 e8          	mov    -0x18(%rbp),%rax
  404b6f:	48 8b 40 08          	mov    0x8(%rax),%rax
  404b73:	48 89 45 e8          	mov    %rax,-0x18(%rbp)
  404b77:	48 83 7d e8 00       	cmpq   $0x0,-0x18(%rbp)
  404b7c:	75 9a                	jne    404b18 <main+0xa69>
  404b7e:	0f b6 05 65 98 21 00 	movzbl 0x219865(%rip),%eax        # 61e3ea <unzFailsExist>
  404b85:	84 c0                	test   %al,%al
  404b87:	0f 84 f4 00 00 00    	je     404c81 <main+0xbd2>
  404b8d:	bf 02 00 00 00       	mov    $0x2,%edi
  404b92:	e8 53 d7 ff ff       	callq  4022ea <setExit>
  404b97:	8b 05 17 90 21 00    	mov    0x219017(%rip),%eax        # 61dbb4 <exitValue>
  404b9d:	89 c7                	mov    %eax,%edi
  404b9f:	e8 1c c7 ff ff       	callq  4012c0 <exit@plt>
  404ba4:	c6 05 1f 94 21 00 00 	movb   $0x0,0x21941f(%rip)        # 61dfca <testFailsExist>
  404bab:	8b 05 f7 8f 21 00    	mov    0x218ff7(%rip),%eax        # 61dba8 <srcMode>
  404bb1:	83 f8 01             	cmp    $0x1,%eax
  404bb4:	75 0c                	jne    404bc2 <main+0xb13>
  404bb6:	bf 00 00 00 00       	mov    $0x0,%edi
  404bbb:	e8 ac ee ff ff       	callq  403a6c <testf>
  404bc0:	eb 74                	jmp    404c36 <main+0xb87>
  404bc2:	c6 45 e7 01          	movb   $0x1,-0x19(%rbp)
  404bc6:	48 8b 45 d0          	mov    -0x30(%rbp),%rax
  404bca:	48 89 45 e8          	mov    %rax,-0x18(%rbp)
  404bce:	eb 5f                	jmp    404c2f <main+0xb80>
  404bd0:	48 8b 45 e8          	mov    -0x18(%rbp),%rax
  404bd4:	48 8b 00             	mov    (%rax),%rax
  404bd7:	be 1c a0 41 00       	mov    $0x41a01c,%esi
  404bdc:	48 89 c7             	mov    %rax,%rdi
  404bdf:	e8 dc c5 ff ff       	callq  4011c0 <strcmp@plt>
  404be4:	85 c0                	test   %eax,%eax
  404be6:	75 06                	jne    404bee <main+0xb3f>
  404be8:	c6 45 e7 00          	movb   $0x0,-0x19(%rbp)
  404bec:	eb 35                	jmp    404c23 <main+0xb74>
  404bee:	48 8b 45 e8          	mov    -0x18(%rbp),%rax
  404bf2:	48 8b 00             	mov    (%rax),%rax
  404bf5:	0f b6 00             	movzbl (%rax),%eax
  404bf8:	3c 2d                	cmp    $0x2d,%al
  404bfa:	75 06                	jne    404c02 <main+0xb53>
  404bfc:	80 7d e7 00          	cmpb   $0x0,-0x19(%rbp)
  404c00:	75 20                	jne    404c22 <main+0xb73>
  404c02:	8b 05 88 8f 21 00    	mov    0x218f88(%rip),%eax        # 61db90 <numFilesProcessed>
  404c08:	83 c0 01             	add    $0x1,%eax
  404c0b:	89 05 7f 8f 21 00    	mov    %eax,0x218f7f(%rip)        # 61db90 <numFilesProcessed>
  404c11:	48 8b 45 e8          	mov    -0x18(%rbp),%rax
  404c15:	48 8b 00             	mov    (%rax),%rax
  404c18:	48 89 c7             	mov    %rax,%rdi
  404c1b:	e8 4c ee ff ff       	callq  403a6c <testf>
  404c20:	eb 01                	jmp    404c23 <main+0xb74>
  404c22:	90                   	nop
  404c23:	48 8b 45 e8          	mov    -0x18(%rbp),%rax
  404c27:	48 8b 40 08          	mov    0x8(%rax),%rax
  404c2b:	48 89 45 e8          	mov    %rax,-0x18(%rbp)
  404c2f:	48 83 7d e8 00       	cmpq   $0x0,-0x18(%rbp)
  404c34:	75 9a                	jne    404bd0 <main+0xb21>
  404c36:	0f b6 05 8d 93 21 00 	movzbl 0x21938d(%rip),%eax        # 61dfca <testFailsExist>
  404c3d:	84 c0                	test   %al,%al
  404c3f:	74 40                	je     404c81 <main+0xbd2>
  404c41:	0f b6 05 70 8f 21 00 	movzbl 0x218f70(%rip),%eax        # 61dbb8 <noisy>
  404c48:	84 c0                	test   %al,%al
  404c4a:	74 35                	je     404c81 <main+0xbd2>
  404c4c:	48 8b 05 5d 86 21 00 	mov    0x21865d(%rip),%rax        # 61d2b0 <stderr@@GLIBC_2.2.5>
  404c53:	48 89 c1             	mov    %rax,%rcx
  404c56:	ba 70 00 00 00       	mov    $0x70,%edx
  404c5b:	be 01 00 00 00       	mov    $0x1,%esi
  404c60:	bf 28 a1 41 00       	mov    $0x41a128,%edi
  404c65:	e8 66 c6 ff ff       	callq  4012d0 <fwrite@plt>
  404c6a:	bf 02 00 00 00       	mov    $0x2,%edi
  404c6f:	e8 76 d6 ff ff       	callq  4022ea <setExit>
  404c74:	8b 05 3a 8f 21 00    	mov    0x218f3a(%rip),%eax        # 61dbb4 <exitValue>
  404c7a:	89 c7                	mov    %eax,%edi
  404c7c:	e8 3f c6 ff ff       	callq  4012c0 <exit@plt>
  404c81:	48 8b 45 d0          	mov    -0x30(%rbp),%rax
  404c85:	48 89 45 e8          	mov    %rax,-0x18(%rbp)
  404c89:	eb 3b                	jmp    404cc6 <main+0xc17>
  404c8b:	48 8b 45 e8          	mov    -0x18(%rbp),%rax
  404c8f:	48 8b 40 08          	mov    0x8(%rax),%rax
  404c93:	48 89 45 d8          	mov    %rax,-0x28(%rbp)
  404c97:	48 8b 45 e8          	mov    -0x18(%rbp),%rax
  404c9b:	48 8b 00             	mov    (%rax),%rax
  404c9e:	48 85 c0             	test   %rax,%rax
  404ca1:	74 0f                	je     404cb2 <main+0xc03>
  404ca3:	48 8b 45 e8          	mov    -0x18(%rbp),%rax
  404ca7:	48 8b 00             	mov    (%rax),%rax
  404caa:	48 89 c7             	mov    %rax,%rdi
  404cad:	e8 ce c3 ff ff       	callq  401080 <free@plt>
  404cb2:	48 8b 45 e8          	mov    -0x18(%rbp),%rax
  404cb6:	48 89 c7             	mov    %rax,%rdi
  404cb9:	e8 c2 c3 ff ff       	callq  401080 <free@plt>
  404cbe:	48 8b 45 d8          	mov    -0x28(%rbp),%rax
  404cc2:	48 89 45 e8          	mov    %rax,-0x18(%rbp)
  404cc6:	48 83 7d e8 00       	cmpq   $0x0,-0x18(%rbp)
  404ccb:	75 be                	jne    404c8b <main+0xbdc>
  404ccd:	8b 05 e1 8e 21 00    	mov    0x218ee1(%rip),%eax        # 61dbb4 <exitValue>
  404cd3:	c9                   	leaveq 
  404cd4:	c3                   	retq   

0000000000404cd5 <testStream._omp_fn.0>:
  404cd5:	55                   	push   %rbp
  404cd6:	48 89 e5             	mov    %rsp,%rbp
  404cd9:	41 54                	push   %r12
  404cdb:	53                   	push   %rbx
  404cdc:	48 83 ec 20          	sub    $0x20,%rsp
  404ce0:	48 89 7d d8          	mov    %rdi,-0x28(%rbp)
  404ce4:	48 8b 45 d8          	mov    -0x28(%rbp),%rax
  404ce8:	48 8b 40 08          	mov    0x8(%rax),%rax
  404cec:	8b 00                	mov    (%rax),%eax
  404cee:	89 c3                	mov    %eax,%ebx
  404cf0:	e8 eb c4 ff ff       	callq  4011e0 <omp_get_num_threads@plt>
  404cf5:	41 89 c4             	mov    %eax,%r12d
  404cf8:	e8 43 c4 ff ff       	callq  401140 <omp_get_thread_num@plt>
  404cfd:	89 c6                	mov    %eax,%esi
  404cff:	89 d8                	mov    %ebx,%eax
  404d01:	89 c2                	mov    %eax,%edx
  404d03:	c1 fa 1f             	sar    $0x1f,%edx
  404d06:	41 f7 fc             	idiv   %r12d
  404d09:	89 c1                	mov    %eax,%ecx
  404d0b:	89 d8                	mov    %ebx,%eax
  404d0d:	89 c2                	mov    %eax,%edx
  404d0f:	c1 fa 1f             	sar    $0x1f,%edx
  404d12:	41 f7 fc             	idiv   %r12d
  404d15:	89 d0                	mov    %edx,%eax
  404d17:	39 c6                	cmp    %eax,%esi
  404d19:	7c 40                	jl     404d5b <testStream._omp_fn.0+0x86>
  404d1b:	89 ca                	mov    %ecx,%edx
  404d1d:	0f af d6             	imul   %esi,%edx
  404d20:	01 d0                	add    %edx,%eax
  404d22:	8d 14 08             	lea    (%rax,%rcx,1),%edx
  404d25:	39 d0                	cmp    %edx,%eax
  404d27:	7d 3c                	jge    404d65 <testStream._omp_fn.0+0x90>
  404d29:	89 45 ec             	mov    %eax,-0x14(%rbp)
  404d2c:	8b 45 ec             	mov    -0x14(%rbp),%eax
  404d2f:	48 63 c8             	movslq %eax,%rcx
  404d32:	48 8b 45 d8          	mov    -0x28(%rbp),%rax
  404d36:	48 8b 40 10          	mov    0x10(%rax),%rax
  404d3a:	48 01 c8             	add    %rcx,%rax
  404d3d:	0f b6 30             	movzbl (%rax),%esi
  404d40:	48 8b 45 d8          	mov    -0x28(%rbp),%rax
  404d44:	48 8b 08             	mov    (%rax),%rcx
  404d47:	8b 45 ec             	mov    -0x14(%rbp),%eax
  404d4a:	48 98                	cltq   
  404d4c:	40 88 34 01          	mov    %sil,(%rcx,%rax,1)
  404d50:	83 45 ec 01          	addl   $0x1,-0x14(%rbp)
  404d54:	39 55 ec             	cmp    %edx,-0x14(%rbp)
  404d57:	7c d3                	jl     404d2c <testStream._omp_fn.0+0x57>
  404d59:	eb 0a                	jmp    404d65 <testStream._omp_fn.0+0x90>
  404d5b:	b8 00 00 00 00       	mov    $0x0,%eax
  404d60:	83 c1 01             	add    $0x1,%ecx
  404d63:	eb b6                	jmp    404d1b <testStream._omp_fn.0+0x46>
  404d65:	48 83 c4 20          	add    $0x20,%rsp
  404d69:	5b                   	pop    %rbx
  404d6a:	41 5c                	pop    %r12
  404d6c:	5d                   	pop    %rbp
  404d6d:	c3                   	retq   

0000000000404d6e <uncompressStream._omp_fn.1>:
  404d6e:	55                   	push   %rbp
  404d6f:	48 89 e5             	mov    %rsp,%rbp
  404d72:	41 54                	push   %r12
  404d74:	53                   	push   %rbx
  404d75:	48 83 ec 20          	sub    $0x20,%rsp
  404d79:	48 89 7d d8          	mov    %rdi,-0x28(%rbp)
  404d7d:	48 8b 45 d8          	mov    -0x28(%rbp),%rax
  404d81:	48 8b 40 08          	mov    0x8(%rax),%rax
  404d85:	8b 00                	mov    (%rax),%eax
  404d87:	89 c3                	mov    %eax,%ebx
  404d89:	e8 52 c4 ff ff       	callq  4011e0 <omp_get_num_threads@plt>
  404d8e:	41 89 c4             	mov    %eax,%r12d
  404d91:	e8 aa c3 ff ff       	callq  401140 <omp_get_thread_num@plt>
  404d96:	89 c6                	mov    %eax,%esi
  404d98:	89 d8                	mov    %ebx,%eax
  404d9a:	89 c2                	mov    %eax,%edx
  404d9c:	c1 fa 1f             	sar    $0x1f,%edx
  404d9f:	41 f7 fc             	idiv   %r12d
  404da2:	89 c1                	mov    %eax,%ecx
  404da4:	89 d8                	mov    %ebx,%eax
  404da6:	89 c2                	mov    %eax,%edx
  404da8:	c1 fa 1f             	sar    $0x1f,%edx
  404dab:	41 f7 fc             	idiv   %r12d
  404dae:	89 d0                	mov    %edx,%eax
  404db0:	39 c6                	cmp    %eax,%esi
  404db2:	7c 40                	jl     404df4 <uncompressStream._omp_fn.1+0x86>
  404db4:	89 ca                	mov    %ecx,%edx
  404db6:	0f af d6             	imul   %esi,%edx
  404db9:	01 d0                	add    %edx,%eax
  404dbb:	8d 14 08             	lea    (%rax,%rcx,1),%edx
  404dbe:	39 d0                	cmp    %edx,%eax
  404dc0:	7d 3c                	jge    404dfe <uncompressStream._omp_fn.1+0x90>
  404dc2:	89 45 ec             	mov    %eax,-0x14(%rbp)
  404dc5:	8b 45 ec             	mov    -0x14(%rbp),%eax
  404dc8:	48 63 c8             	movslq %eax,%rcx
  404dcb:	48 8b 45 d8          	mov    -0x28(%rbp),%rax
  404dcf:	48 8b 40 10          	mov    0x10(%rax),%rax
  404dd3:	48 01 c8             	add    %rcx,%rax
  404dd6:	0f b6 30             	movzbl (%rax),%esi
  404dd9:	48 8b 45 d8          	mov    -0x28(%rbp),%rax
  404ddd:	48 8b 08             	mov    (%rax),%rcx
  404de0:	8b 45 ec             	mov    -0x14(%rbp),%eax
  404de3:	48 98                	cltq   
  404de5:	40 88 34 01          	mov    %sil,(%rcx,%rax,1)
  404de9:	83 45 ec 01          	addl   $0x1,-0x14(%rbp)
  404ded:	39 55 ec             	cmp    %edx,-0x14(%rbp)
  404df0:	7c d3                	jl     404dc5 <uncompressStream._omp_fn.1+0x57>
  404df2:	eb 0a                	jmp    404dfe <uncompressStream._omp_fn.1+0x90>
  404df4:	b8 00 00 00 00       	mov    $0x0,%eax
  404df9:	83 c1 01             	add    $0x1,%ecx
  404dfc:	eb b6                	jmp    404db4 <uncompressStream._omp_fn.1+0x46>
  404dfe:	48 83 c4 20          	add    $0x20,%rsp
  404e02:	5b                   	pop    %rbx
  404e03:	41 5c                	pop    %r12
  404e05:	5d                   	pop    %rbp
  404e06:	c3                   	retq   

0000000000404e07 <uInt64_toAscii._omp_fn.2>:
  404e07:	55                   	push   %rbp
  404e08:	48 89 e5             	mov    %rsp,%rbp
  404e0b:	41 54                	push   %r12
  404e0d:	53                   	push   %rbx
  404e0e:	48 83 ec 20          	sub    $0x20,%rsp
  404e12:	48 89 7d d8          	mov    %rdi,-0x28(%rbp)
  404e16:	48 8b 45 d8          	mov    -0x28(%rbp),%rax
  404e1a:	8b 58 10             	mov    0x10(%rax),%ebx
  404e1d:	e8 be c3 ff ff       	callq  4011e0 <omp_get_num_threads@plt>
  404e22:	41 89 c4             	mov    %eax,%r12d
  404e25:	e8 16 c3 ff ff       	callq  401140 <omp_get_thread_num@plt>
  404e2a:	89 c6                	mov    %eax,%esi
  404e2c:	89 d8                	mov    %ebx,%eax
  404e2e:	89 c2                	mov    %eax,%edx
  404e30:	c1 fa 1f             	sar    $0x1f,%edx
  404e33:	41 f7 fc             	idiv   %r12d
  404e36:	89 c1                	mov    %eax,%ecx
  404e38:	89 d8                	mov    %ebx,%eax
  404e3a:	89 c2                	mov    %eax,%edx
  404e3c:	c1 fa 1f             	sar    $0x1f,%edx
  404e3f:	41 f7 fc             	idiv   %r12d
  404e42:	89 d0                	mov    %edx,%eax
  404e44:	39 c6                	cmp    %eax,%esi
  404e46:	7c 4b                	jl     404e93 <uInt64_toAscii._omp_fn.2+0x8c>
  404e48:	89 ca                	mov    %ecx,%edx
  404e4a:	0f af d6             	imul   %esi,%edx
  404e4d:	01 d0                	add    %edx,%eax
  404e4f:	8d 14 08             	lea    (%rax,%rcx,1),%edx
  404e52:	39 d0                	cmp    %edx,%eax
  404e54:	7d 47                	jge    404e9d <uInt64_toAscii._omp_fn.2+0x96>
  404e56:	89 45 ec             	mov    %eax,-0x14(%rbp)
  404e59:	8b 45 ec             	mov    -0x14(%rbp),%eax
  404e5c:	48 63 c8             	movslq %eax,%rcx
  404e5f:	48 8b 45 d8          	mov    -0x28(%rbp),%rax
  404e63:	48 8b 00             	mov    (%rax),%rax
  404e66:	48 8d 34 08          	lea    (%rax,%rcx,1),%rsi
  404e6a:	48 8b 45 d8          	mov    -0x28(%rbp),%rax
  404e6e:	8b 40 10             	mov    0x10(%rax),%eax
  404e71:	2b 45 ec             	sub    -0x14(%rbp),%eax
  404e74:	8d 78 ff             	lea    -0x1(%rax),%edi
  404e77:	48 8b 45 d8          	mov    -0x28(%rbp),%rax
  404e7b:	48 8b 48 08          	mov    0x8(%rax),%rcx
  404e7f:	48 63 c7             	movslq %edi,%rax
  404e82:	0f b6 04 01          	movzbl (%rcx,%rax,1),%eax
  404e86:	88 06                	mov    %al,(%rsi)
  404e88:	83 45 ec 01          	addl   $0x1,-0x14(%rbp)
  404e8c:	39 55 ec             	cmp    %edx,-0x14(%rbp)
  404e8f:	7c c8                	jl     404e59 <uInt64_toAscii._omp_fn.2+0x52>
  404e91:	eb 0a                	jmp    404e9d <uInt64_toAscii._omp_fn.2+0x96>
  404e93:	b8 00 00 00 00       	mov    $0x0,%eax
  404e98:	83 c1 01             	add    $0x1,%ecx
  404e9b:	eb ab                	jmp    404e48 <uInt64_toAscii._omp_fn.2+0x41>
  404e9d:	48 83 c4 20          	add    $0x20,%rsp
  404ea1:	5b                   	pop    %rbx
  404ea2:	41 5c                	pop    %r12
  404ea4:	5d                   	pop    %rbp
  404ea5:	c3                   	retq   
  404ea6:	66 90                	xchg   %ax,%ax

0000000000404ea8 <BZ2_bz__AssertH__fail>:
  404ea8:	55                   	push   %rbp
  404ea9:	48 89 e5             	mov    %rsp,%rbp
  404eac:	48 83 ec 10          	sub    $0x10,%rsp
  404eb0:	89 7d fc             	mov    %edi,-0x4(%rbp)
  404eb3:	e8 5b 40 00 00       	callq  408f13 <BZ2_bzlibVersion>
  404eb8:	48 89 c1             	mov    %rax,%rcx
  404ebb:	48 8b 05 ee 83 21 00 	mov    0x2183ee(%rip),%rax        # 61d2b0 <stderr@@GLIBC_2.2.5>
  404ec2:	8b 55 fc             	mov    -0x4(%rbp),%edx
  404ec5:	be 10 a4 41 00       	mov    $0x41a410,%esi
  404eca:	48 89 c7             	mov    %rax,%rdi
  404ecd:	b8 00 00 00 00       	mov    $0x0,%eax
  404ed2:	e8 19 c3 ff ff       	callq  4011f0 <fprintf@plt>
  404ed7:	81 7d fc ef 03 00 00 	cmpl   $0x3ef,-0x4(%rbp)
  404ede:	75 1e                	jne    404efe <BZ2_bz__AssertH__fail+0x56>
  404ee0:	48 8b 05 c9 83 21 00 	mov    0x2183c9(%rip),%rax        # 61d2b0 <stderr@@GLIBC_2.2.5>
  404ee7:	48 89 c1             	mov    %rax,%rcx
  404eea:	ba 20 04 00 00       	mov    $0x420,%edx
  404eef:	be 01 00 00 00       	mov    $0x1,%esi
  404ef4:	bf d0 a5 41 00       	mov    $0x41a5d0,%edi
  404ef9:	e8 d2 c3 ff ff       	callq  4012d0 <fwrite@plt>
  404efe:	bf 03 00 00 00       	mov    $0x3,%edi
  404f03:	e8 b8 c3 ff ff       	callq  4012c0 <exit@plt>

0000000000404f08 <bz_config_ok>:
  404f08:	55                   	push   %rbp
  404f09:	48 89 e5             	mov    %rsp,%rbp
  404f0c:	b8 01 00 00 00       	mov    $0x1,%eax
  404f11:	5d                   	pop    %rbp
  404f12:	c3                   	retq   

0000000000404f13 <default_bzalloc>:
  404f13:	55                   	push   %rbp
  404f14:	48 89 e5             	mov    %rsp,%rbp
  404f17:	48 83 ec 20          	sub    $0x20,%rsp
  404f1b:	48 89 7d e8          	mov    %rdi,-0x18(%rbp)
  404f1f:	89 75 e4             	mov    %esi,-0x1c(%rbp)
  404f22:	89 55 e0             	mov    %edx,-0x20(%rbp)
  404f25:	8b 45 e4             	mov    -0x1c(%rbp),%eax
  404f28:	0f af 45 e0          	imul   -0x20(%rbp),%eax
  404f2c:	48 98                	cltq   
  404f2e:	48 89 c7             	mov    %rax,%rdi
  404f31:	e8 ea c2 ff ff       	callq  401220 <malloc@plt>
  404f36:	48 89 45 f8          	mov    %rax,-0x8(%rbp)
  404f3a:	48 8b 45 f8          	mov    -0x8(%rbp),%rax
  404f3e:	c9                   	leaveq 
  404f3f:	c3                   	retq   

0000000000404f40 <default_bzfree>:
  404f40:	55                   	push   %rbp
  404f41:	48 89 e5             	mov    %rsp,%rbp
  404f44:	48 83 ec 10          	sub    $0x10,%rsp
  404f48:	48 89 7d f8          	mov    %rdi,-0x8(%rbp)
  404f4c:	48 89 75 f0          	mov    %rsi,-0x10(%rbp)
  404f50:	48 83 7d f0 00       	cmpq   $0x0,-0x10(%rbp)
  404f55:	74 0c                	je     404f63 <default_bzfree+0x23>
  404f57:	48 8b 45 f0          	mov    -0x10(%rbp),%rax
  404f5b:	48 89 c7             	mov    %rax,%rdi
  404f5e:	e8 1d c1 ff ff       	callq  401080 <free@plt>
  404f63:	c9                   	leaveq 
  404f64:	c3                   	retq   

0000000000404f65 <prepare_new_block>:
  404f65:	55                   	push   %rbp
  404f66:	48 89 e5             	mov    %rsp,%rbp
  404f69:	48 89 7d e8          	mov    %rdi,-0x18(%rbp)
  404f6d:	48 8b 45 e8          	mov    -0x18(%rbp),%rax
  404f71:	c7 40 6c 00 00 00 00 	movl   $0x0,0x6c(%rax)
  404f78:	48 8b 45 e8          	mov    -0x18(%rbp),%rax
  404f7c:	c7 40 74 00 00 00 00 	movl   $0x0,0x74(%rax)
  404f83:	48 8b 45 e8          	mov    -0x18(%rbp),%rax
  404f87:	c7 40 78 00 00 00 00 	movl   $0x0,0x78(%rax)
  404f8e:	48 8b 45 e8          	mov    -0x18(%rbp),%rax
  404f92:	c7 80 88 02 00 00 ff 	movl   $0xffffffff,0x288(%rax)
  404f99:	ff ff ff 
  404f9c:	c7 45 fc 00 00 00 00 	movl   $0x0,-0x4(%rbp)
  404fa3:	eb 15                	jmp    404fba <prepare_new_block+0x55>
  404fa5:	48 8b 55 e8          	mov    -0x18(%rbp),%rdx
  404fa9:	8b 45 fc             	mov    -0x4(%rbp),%eax
  404fac:	48 98                	cltq   
  404fae:	c6 84 02 80 00 00 00 	movb   $0x0,0x80(%rdx,%rax,1)
  404fb5:	00 
  404fb6:	83 45 fc 01          	addl   $0x1,-0x4(%rbp)
  404fba:	81 7d fc ff 00 00 00 	cmpl   $0xff,-0x4(%rbp)
  404fc1:	7e e2                	jle    404fa5 <prepare_new_block+0x40>
  404fc3:	48 8b 45 e8          	mov    -0x18(%rbp),%rax
  404fc7:	8b 80 94 02 00 00    	mov    0x294(%rax),%eax
  404fcd:	8d 50 01             	lea    0x1(%rax),%edx
  404fd0:	48 8b 45 e8          	mov    -0x18(%rbp),%rax
  404fd4:	89 90 94 02 00 00    	mov    %edx,0x294(%rax)
  404fda:	5d                   	pop    %rbp
  404fdb:	c3                   	retq   

0000000000404fdc <init_RL>:
  404fdc:	55                   	push   %rbp
  404fdd:	48 89 e5             	mov    %rsp,%rbp
  404fe0:	48 89 7d f8          	mov    %rdi,-0x8(%rbp)
  404fe4:	48 8b 45 f8          	mov    -0x8(%rbp),%rax
  404fe8:	c7 40 5c 00 01 00 00 	movl   $0x100,0x5c(%rax)
  404fef:	48 8b 45 f8          	mov    -0x8(%rbp),%rax
  404ff3:	c7 40 60 00 00 00 00 	movl   $0x0,0x60(%rax)
  404ffa:	5d                   	pop    %rbp
  404ffb:	c3                   	retq   

0000000000404ffc <isempty_RL>:
  404ffc:	55                   	push   %rbp
  404ffd:	48 89 e5             	mov    %rsp,%rbp
  405000:	48 89 7d f8          	mov    %rdi,-0x8(%rbp)
  405004:	48 8b 45 f8          	mov    -0x8(%rbp),%rax
  405008:	8b 40 5c             	mov    0x5c(%rax),%eax
  40500b:	3d ff 00 00 00       	cmp    $0xff,%eax
  405010:	77 12                	ja     405024 <isempty_RL+0x28>
  405012:	48 8b 45 f8          	mov    -0x8(%rbp),%rax
  405016:	8b 40 60             	mov    0x60(%rax),%eax
  405019:	85 c0                	test   %eax,%eax
  40501b:	7e 07                	jle    405024 <isempty_RL+0x28>
  40501d:	b8 00 00 00 00       	mov    $0x0,%eax
  405022:	eb 05                	jmp    405029 <isempty_RL+0x2d>
  405024:	b8 01 00 00 00       	mov    $0x1,%eax
  405029:	5d                   	pop    %rbp
  40502a:	c3                   	retq   

000000000040502b <BZ2_bzCompressInit>:
  40502b:	55                   	push   %rbp
  40502c:	48 89 e5             	mov    %rsp,%rbp
  40502f:	48 83 ec 30          	sub    $0x30,%rsp
  405033:	48 89 7d e8          	mov    %rdi,-0x18(%rbp)
  405037:	89 75 e4             	mov    %esi,-0x1c(%rbp)
  40503a:	89 55 e0             	mov    %edx,-0x20(%rbp)
  40503d:	89 4d dc             	mov    %ecx,-0x24(%rbp)
  405040:	e8 c3 fe ff ff       	callq  404f08 <bz_config_ok>
  405045:	85 c0                	test   %eax,%eax
  405047:	75 0a                	jne    405053 <BZ2_bzCompressInit+0x28>
  405049:	b8 f7 ff ff ff       	mov    $0xfffffff7,%eax
  40504e:	e9 33 03 00 00       	jmpq   405386 <BZ2_bzCompressInit+0x35b>
  405053:	48 83 7d e8 00       	cmpq   $0x0,-0x18(%rbp)
  405058:	74 1b                	je     405075 <BZ2_bzCompressInit+0x4a>
  40505a:	83 7d e4 00          	cmpl   $0x0,-0x1c(%rbp)
  40505e:	7e 15                	jle    405075 <BZ2_bzCompressInit+0x4a>
  405060:	83 7d e4 09          	cmpl   $0x9,-0x1c(%rbp)
  405064:	7f 0f                	jg     405075 <BZ2_bzCompressInit+0x4a>
  405066:	83 7d dc 00          	cmpl   $0x0,-0x24(%rbp)
  40506a:	78 09                	js     405075 <BZ2_bzCompressInit+0x4a>
  40506c:	81 7d dc fa 00 00 00 	cmpl   $0xfa,-0x24(%rbp)
  405073:	7e 0a                	jle    40507f <BZ2_bzCompressInit+0x54>
  405075:	b8 fe ff ff ff       	mov    $0xfffffffe,%eax
  40507a:	e9 07 03 00 00       	jmpq   405386 <BZ2_bzCompressInit+0x35b>
  40507f:	83 7d dc 00          	cmpl   $0x0,-0x24(%rbp)
  405083:	75 07                	jne    40508c <BZ2_bzCompressInit+0x61>
  405085:	c7 45 dc 1e 00 00 00 	movl   $0x1e,-0x24(%rbp)
  40508c:	48 8b 45 e8          	mov    -0x18(%rbp),%rax
  405090:	48 8b 40 38          	mov    0x38(%rax),%rax
  405094:	48 85 c0             	test   %rax,%rax
  405097:	75 0c                	jne    4050a5 <BZ2_bzCompressInit+0x7a>
  405099:	48 8b 45 e8          	mov    -0x18(%rbp),%rax
  40509d:	48 c7 40 38 13 4f 40 	movq   $0x404f13,0x38(%rax)
  4050a4:	00 
  4050a5:	48 8b 45 e8          	mov    -0x18(%rbp),%rax
  4050a9:	48 8b 40 40          	mov    0x40(%rax),%rax
  4050ad:	48 85 c0             	test   %rax,%rax
  4050b0:	75 0c                	jne    4050be <BZ2_bzCompressInit+0x93>
  4050b2:	48 8b 45 e8          	mov    -0x18(%rbp),%rax
  4050b6:	48 c7 40 40 40 4f 40 	movq   $0x404f40,0x40(%rax)
  4050bd:	00 
  4050be:	48 8b 45 e8          	mov    -0x18(%rbp),%rax
  4050c2:	48 8b 40 38          	mov    0x38(%rax),%rax
  4050c6:	48 8b 55 e8          	mov    -0x18(%rbp),%rdx
  4050ca:	48 8b 4a 48          	mov    0x48(%rdx),%rcx
  4050ce:	ba 01 00 00 00       	mov    $0x1,%edx
  4050d3:	be d8 d9 00 00       	mov    $0xd9d8,%esi
  4050d8:	48 89 cf             	mov    %rcx,%rdi
  4050db:	ff d0                	callq  *%rax
  4050dd:	48 89 45 f8          	mov    %rax,-0x8(%rbp)
  4050e1:	48 83 7d f8 00       	cmpq   $0x0,-0x8(%rbp)
  4050e6:	75 0a                	jne    4050f2 <BZ2_bzCompressInit+0xc7>
  4050e8:	b8 fd ff ff ff       	mov    $0xfffffffd,%eax
  4050ed:	e9 94 02 00 00       	jmpq   405386 <BZ2_bzCompressInit+0x35b>
  4050f2:	48 8b 45 f8          	mov    -0x8(%rbp),%rax
  4050f6:	48 8b 55 e8          	mov    -0x18(%rbp),%rdx
  4050fa:	48 89 10             	mov    %rdx,(%rax)
  4050fd:	48 8b 45 f8          	mov    -0x8(%rbp),%rax
  405101:	48 c7 40 18 00 00 00 	movq   $0x0,0x18(%rax)
  405108:	00 
  405109:	48 8b 45 f8          	mov    -0x8(%rbp),%rax
  40510d:	48 c7 40 20 00 00 00 	movq   $0x0,0x20(%rax)
  405114:	00 
  405115:	48 8b 45 f8          	mov    -0x8(%rbp),%rax
  405119:	48 c7 40 28 00 00 00 	movq   $0x0,0x28(%rax)
  405120:	00 
  405121:	8b 45 e4             	mov    -0x1c(%rbp),%eax
  405124:	69 c0 a0 86 01 00    	imul   $0x186a0,%eax,%eax
  40512a:	89 45 f4             	mov    %eax,-0xc(%rbp)
  40512d:	48 8b 45 e8          	mov    -0x18(%rbp),%rax
  405131:	48 8b 40 38          	mov    0x38(%rax),%rax
  405135:	8b 55 f4             	mov    -0xc(%rbp),%edx
  405138:	c1 e2 02             	shl    $0x2,%edx
  40513b:	89 d6                	mov    %edx,%esi
  40513d:	48 8b 55 e8          	mov    -0x18(%rbp),%rdx
  405141:	48 8b 4a 48          	mov    0x48(%rdx),%rcx
  405145:	ba 01 00 00 00       	mov    $0x1,%edx
  40514a:	48 89 cf             	mov    %rcx,%rdi
  40514d:	ff d0                	callq  *%rax
  40514f:	48 8b 55 f8          	mov    -0x8(%rbp),%rdx
  405153:	48 89 42 18          	mov    %rax,0x18(%rdx)
  405157:	48 8b 45 e8          	mov    -0x18(%rbp),%rax
  40515b:	48 8b 40 38          	mov    0x38(%rax),%rax
  40515f:	8b 55 f4             	mov    -0xc(%rbp),%edx
  405162:	83 c2 22             	add    $0x22,%edx
  405165:	8d 34 95 00 00 00 00 	lea    0x0(,%rdx,4),%esi
  40516c:	48 8b 55 e8          	mov    -0x18(%rbp),%rdx
  405170:	48 8b 4a 48          	mov    0x48(%rdx),%rcx
  405174:	ba 01 00 00 00       	mov    $0x1,%edx
  405179:	48 89 cf             	mov    %rcx,%rdi
  40517c:	ff d0                	callq  *%rax
  40517e:	48 8b 55 f8          	mov    -0x8(%rbp),%rdx
  405182:	48 89 42 20          	mov    %rax,0x20(%rdx)
  405186:	48 8b 45 e8          	mov    -0x18(%rbp),%rax
  40518a:	48 8b 40 38          	mov    0x38(%rax),%rax
  40518e:	48 8b 55 e8          	mov    -0x18(%rbp),%rdx
  405192:	48 8b 4a 48          	mov    0x48(%rdx),%rcx
  405196:	ba 01 00 00 00       	mov    $0x1,%edx
  40519b:	be 04 00 04 00       	mov    $0x40004,%esi
  4051a0:	48 89 cf             	mov    %rcx,%rdi
  4051a3:	ff d0                	callq  *%rax
  4051a5:	48 8b 55 f8          	mov    -0x8(%rbp),%rdx
  4051a9:	48 89 42 28          	mov    %rax,0x28(%rdx)
  4051ad:	48 8b 45 f8          	mov    -0x8(%rbp),%rax
  4051b1:	48 8b 40 18          	mov    0x18(%rax),%rax
  4051b5:	48 85 c0             	test   %rax,%rax
  4051b8:	74 1e                	je     4051d8 <BZ2_bzCompressInit+0x1ad>
  4051ba:	48 8b 45 f8          	mov    -0x8(%rbp),%rax
  4051be:	48 8b 40 20          	mov    0x20(%rax),%rax
  4051c2:	48 85 c0             	test   %rax,%rax
  4051c5:	74 11                	je     4051d8 <BZ2_bzCompressInit+0x1ad>
  4051c7:	48 8b 45 f8          	mov    -0x8(%rbp),%rax
  4051cb:	48 8b 40 28          	mov    0x28(%rax),%rax
  4051cf:	48 85 c0             	test   %rax,%rax
  4051d2:	0f 85 b4 00 00 00    	jne    40528c <BZ2_bzCompressInit+0x261>
  4051d8:	48 8b 45 f8          	mov    -0x8(%rbp),%rax
  4051dc:	48 8b 40 18          	mov    0x18(%rax),%rax
  4051e0:	48 85 c0             	test   %rax,%rax
  4051e3:	74 20                	je     405205 <BZ2_bzCompressInit+0x1da>
  4051e5:	48 8b 45 e8          	mov    -0x18(%rbp),%rax
  4051e9:	48 8b 40 40          	mov    0x40(%rax),%rax
  4051ed:	48 8b 55 f8          	mov    -0x8(%rbp),%rdx
  4051f1:	48 8b 4a 18          	mov    0x18(%rdx),%rcx
  4051f5:	48 8b 55 e8          	mov    -0x18(%rbp),%rdx
  4051f9:	48 8b 52 48          	mov    0x48(%rdx),%rdx
  4051fd:	48 89 ce             	mov    %rcx,%rsi
  405200:	48 89 d7             	mov    %rdx,%rdi
  405203:	ff d0                	callq  *%rax
  405205:	48 8b 45 f8          	mov    -0x8(%rbp),%rax
  405209:	48 8b 40 20          	mov    0x20(%rax),%rax
  40520d:	48 85 c0             	test   %rax,%rax
  405210:	74 20                	je     405232 <BZ2_bzCompressInit+0x207>
  405212:	48 8b 45 e8          	mov    -0x18(%rbp),%rax
  405216:	48 8b 40 40          	mov    0x40(%rax),%rax
  40521a:	48 8b 55 f8          	mov    -0x8(%rbp),%rdx
  40521e:	48 8b 4a 20          	mov    0x20(%rdx),%rcx
  405222:	48 8b 55 e8          	mov    -0x18(%rbp),%rdx
  405226:	48 8b 52 48          	mov    0x48(%rdx),%rdx
  40522a:	48 89 ce             	mov    %rcx,%rsi
  40522d:	48 89 d7             	mov    %rdx,%rdi
  405230:	ff d0                	callq  *%rax
  405232:	48 8b 45 f8          	mov    -0x8(%rbp),%rax
  405236:	48 8b 40 28          	mov    0x28(%rax),%rax
  40523a:	48 85 c0             	test   %rax,%rax
  40523d:	74 20                	je     40525f <BZ2_bzCompressInit+0x234>
  40523f:	48 8b 45 e8          	mov    -0x18(%rbp),%rax
  405243:	48 8b 40 40          	mov    0x40(%rax),%rax
  405247:	48 8b 55 f8          	mov    -0x8(%rbp),%rdx
  40524b:	48 8b 4a 28          	mov    0x28(%rdx),%rcx
  40524f:	48 8b 55 e8          	mov    -0x18(%rbp),%rdx
  405253:	48 8b 52 48          	mov    0x48(%rdx),%rdx
  405257:	48 89 ce             	mov    %rcx,%rsi
  40525a:	48 89 d7             	mov    %rdx,%rdi
  40525d:	ff d0                	callq  *%rax
  40525f:	48 83 7d f8 00       	cmpq   $0x0,-0x8(%rbp)
  405264:	74 1c                	je     405282 <BZ2_bzCompressInit+0x257>
  405266:	48 8b 45 e8          	mov    -0x18(%rbp),%rax
  40526a:	48 8b 40 40          	mov    0x40(%rax),%rax
  40526e:	48 8b 55 e8          	mov    -0x18(%rbp),%rdx
  405272:	48 8b 52 48          	mov    0x48(%rdx),%rdx
  405276:	48 8b 4d f8          	mov    -0x8(%rbp),%rcx
  40527a:	48 89 ce             	mov    %rcx,%rsi
  40527d:	48 89 d7             	mov    %rdx,%rdi
  405280:	ff d0                	callq  *%rax
  405282:	b8 fd ff ff ff       	mov    $0xfffffffd,%eax
  405287:	e9 fa 00 00 00       	jmpq   405386 <BZ2_bzCompressInit+0x35b>
  40528c:	48 8b 45 f8          	mov    -0x8(%rbp),%rax
  405290:	c7 80 94 02 00 00 00 	movl   $0x0,0x294(%rax)
  405297:	00 00 00 
  40529a:	48 8b 45 f8          	mov    -0x8(%rbp),%rax
  40529e:	c7 40 0c 02 00 00 00 	movl   $0x2,0xc(%rax)
  4052a5:	48 8b 45 f8          	mov    -0x8(%rbp),%rax
  4052a9:	c7 40 08 02 00 00 00 	movl   $0x2,0x8(%rax)
  4052b0:	48 8b 45 f8          	mov    -0x8(%rbp),%rax
  4052b4:	c7 80 8c 02 00 00 00 	movl   $0x0,0x28c(%rax)
  4052bb:	00 00 00 
  4052be:	48 8b 45 f8          	mov    -0x8(%rbp),%rax
  4052c2:	8b 55 e4             	mov    -0x1c(%rbp),%edx
  4052c5:	89 90 98 02 00 00    	mov    %edx,0x298(%rax)
  4052cb:	8b 45 e4             	mov    -0x1c(%rbp),%eax
  4052ce:	69 c0 a0 86 01 00    	imul   $0x186a0,%eax,%eax
  4052d4:	8d 50 ed             	lea    -0x13(%rax),%edx
  4052d7:	48 8b 45 f8          	mov    -0x8(%rbp),%rax
  4052db:	89 50 70             	mov    %edx,0x70(%rax)
  4052de:	48 8b 45 f8          	mov    -0x8(%rbp),%rax
  4052e2:	8b 55 e0             	mov    -0x20(%rbp),%edx
  4052e5:	89 90 90 02 00 00    	mov    %edx,0x290(%rax)
  4052eb:	48 8b 45 f8          	mov    -0x8(%rbp),%rax
  4052ef:	8b 55 dc             	mov    -0x24(%rbp),%edx
  4052f2:	89 50 58             	mov    %edx,0x58(%rax)
  4052f5:	48 8b 45 f8          	mov    -0x8(%rbp),%rax
  4052f9:	48 8b 50 20          	mov    0x20(%rax),%rdx
  4052fd:	48 8b 45 f8          	mov    -0x8(%rbp),%rax
  405301:	48 89 50 40          	mov    %rdx,0x40(%rax)
  405305:	48 8b 45 f8          	mov    -0x8(%rbp),%rax
  405309:	48 8b 50 18          	mov    0x18(%rax),%rdx
  40530d:	48 8b 45 f8          	mov    -0x8(%rbp),%rax
  405311:	48 89 50 48          	mov    %rdx,0x48(%rax)
  405315:	48 8b 45 f8          	mov    -0x8(%rbp),%rax
  405319:	48 c7 40 50 00 00 00 	movq   $0x0,0x50(%rax)
  405320:	00 
  405321:	48 8b 45 f8          	mov    -0x8(%rbp),%rax
  405325:	48 8b 50 18          	mov    0x18(%rax),%rdx
  405329:	48 8b 45 f8          	mov    -0x8(%rbp),%rax
  40532d:	48 89 50 38          	mov    %rdx,0x38(%rax)
  405331:	48 8b 45 e8          	mov    -0x18(%rbp),%rax
  405335:	48 8b 55 f8          	mov    -0x8(%rbp),%rdx
  405339:	48 89 50 30          	mov    %rdx,0x30(%rax)
  40533d:	48 8b 45 e8          	mov    -0x18(%rbp),%rax
  405341:	c7 40 0c 00 00 00 00 	movl   $0x0,0xc(%rax)
  405348:	48 8b 45 e8          	mov    -0x18(%rbp),%rax
  40534c:	c7 40 10 00 00 00 00 	movl   $0x0,0x10(%rax)
  405353:	48 8b 45 e8          	mov    -0x18(%rbp),%rax
  405357:	c7 40 24 00 00 00 00 	movl   $0x0,0x24(%rax)
  40535e:	48 8b 45 e8          	mov    -0x18(%rbp),%rax
  405362:	c7 40 28 00 00 00 00 	movl   $0x0,0x28(%rax)
  405369:	48 8b 45 f8          	mov    -0x8(%rbp),%rax
  40536d:	48 89 c7             	mov    %rax,%rdi
  405370:	e8 67 fc ff ff       	callq  404fdc <init_RL>
  405375:	48 8b 45 f8          	mov    -0x8(%rbp),%rax
  405379:	48 89 c7             	mov    %rax,%rdi
  40537c:	e8 e4 fb ff ff       	callq  404f65 <prepare_new_block>
  405381:	b8 00 00 00 00       	mov    $0x0,%eax
  405386:	c9                   	leaveq 
  405387:	c3                   	retq   

0000000000405388 <add_pair_to_block>:
  405388:	55                   	push   %rbp
  405389:	48 89 e5             	mov    %rsp,%rbp
  40538c:	48 89 7d e8          	mov    %rdi,-0x18(%rbp)
  405390:	48 8b 45 e8          	mov    -0x18(%rbp),%rax
  405394:	8b 40 5c             	mov    0x5c(%rax),%eax
  405397:	88 45 fb             	mov    %al,-0x5(%rbp)
  40539a:	c7 45 fc 00 00 00 00 	movl   $0x0,-0x4(%rbp)
  4053a1:	eb 3d                	jmp    4053e0 <add_pair_to_block+0x58>
  4053a3:	48 8b 45 e8          	mov    -0x18(%rbp),%rax
  4053a7:	8b 80 88 02 00 00    	mov    0x288(%rax),%eax
  4053ad:	89 c2                	mov    %eax,%edx
  4053af:	c1 e2 08             	shl    $0x8,%edx
  4053b2:	48 8b 45 e8          	mov    -0x18(%rbp),%rax
  4053b6:	8b 80 88 02 00 00    	mov    0x288(%rax),%eax
  4053bc:	89 c1                	mov    %eax,%ecx
  4053be:	c1 e9 18             	shr    $0x18,%ecx
  4053c1:	0f b6 45 fb          	movzbl -0x5(%rbp),%eax
  4053c5:	31 c8                	xor    %ecx,%eax
  4053c7:	89 c0                	mov    %eax,%eax
  4053c9:	8b 04 85 a0 c6 61 00 	mov    0x61c6a0(,%rax,4),%eax
  4053d0:	31 c2                	xor    %eax,%edx
  4053d2:	48 8b 45 e8          	mov    -0x18(%rbp),%rax
  4053d6:	89 90 88 02 00 00    	mov    %edx,0x288(%rax)
  4053dc:	83 45 fc 01          	addl   $0x1,-0x4(%rbp)
  4053e0:	48 8b 45 e8          	mov    -0x18(%rbp),%rax
  4053e4:	8b 40 60             	mov    0x60(%rax),%eax
  4053e7:	3b 45 fc             	cmp    -0x4(%rbp),%eax
  4053ea:	7f b7                	jg     4053a3 <add_pair_to_block+0x1b>
  4053ec:	48 8b 45 e8          	mov    -0x18(%rbp),%rax
  4053f0:	8b 40 5c             	mov    0x5c(%rax),%eax
  4053f3:	48 8b 55 e8          	mov    -0x18(%rbp),%rdx
  4053f7:	89 c0                	mov    %eax,%eax
  4053f9:	c6 84 02 80 00 00 00 	movb   $0x1,0x80(%rdx,%rax,1)
  405400:	01 
  405401:	48 8b 45 e8          	mov    -0x18(%rbp),%rax
  405405:	8b 40 60             	mov    0x60(%rax),%eax
  405408:	83 f8 02             	cmp    $0x2,%eax
  40540b:	74 42                	je     40544f <add_pair_to_block+0xc7>
